

Microchip MPLAB XC8 Assembler V2.32 build 20210201212658 
                                                                                               Sun Aug 08 15:45:38 2021

Microchip MPLAB XC8 C Compiler v2.32 (Free license) build 20210201212658 Og1 
     1                           	processor	18F4520
     2                           	fnconf	rparam,??,?,0
     3                           	pagewidth 120
     4                           	opt	flic
     5                           	psect	idataCOMRAM,global,class=CODE,delta=1,noexec
     6                           	psect	idataBANK0,global,class=CODE,delta=1,noexec
     7                           	psect	smallconst,global,reloc=2,class=SMALLCONST,delta=1,noexec
     8                           	psect	cinit,global,reloc=2,class=CODE,delta=1
     9                           	psect	bssCOMRAM,global,class=COMRAM,space=1,delta=1,lowdata,noexec
    10                           	psect	dataCOMRAM,global,class=COMRAM,space=1,delta=1,lowdata,noexec
    11                           	psect	bssBANK0,global,class=BANK0,space=1,delta=1,lowdata,noexec
    12                           	psect	dataBANK0,global,class=BANK0,space=1,delta=1,lowdata,noexec
    13                           	psect	cstackBANK0,global,class=BANK0,space=1,delta=1,lowdata,noexec
    14                           	psect	cstackCOMRAM,global,class=COMRAM,space=1,delta=1,lowdata,noexec
    15                           	psect	text0,global,reloc=2,class=CODE,delta=1
    16                           	psect	text1,global,reloc=2,class=CODE,delta=1
    17                           	psect	text2,global,reloc=2,class=CODE,delta=1,group=1
    18                           	psect	text3,global,reloc=2,class=CODE,delta=1,group=1
    19                           	psect	text4,global,reloc=2,class=CODE,delta=1,group=1
    20                           	psect	text5,global,reloc=2,class=CODE,delta=1,group=1
    21                           	psect	text6,global,reloc=2,class=CODE,delta=1
    22                           	psect	text7,global,reloc=2,class=CODE,delta=1,group=1
    23                           	psect	text8,global,reloc=2,class=CODE,delta=1
    24                           	psect	text9,global,reloc=2,class=CODE,delta=1
    25                           	psect	text10,global,reloc=2,class=CODE,delta=1
    26                           	psect	text11,global,reloc=2,class=CODE,delta=1
    27                           	psect	text12,global,reloc=2,class=CODE,delta=1
    28                           	psect	text13,global,reloc=2,class=CODE,delta=1
    29                           	psect	text14,global,reloc=2,class=CODE,delta=1
    30                           	psect	text15,global,reloc=2,class=CODE,delta=1
    31                           	psect	text16,global,reloc=2,class=CODE,delta=1
    32                           	psect	intcode,global,reloc=2,class=CODE,delta=1
    33                           	psect	intcode_body,global,reloc=2,class=CODE,delta=1
    34                           	psect	text18,global,reloc=2,class=CODE,delta=1
    35                           	psect	text19,global,reloc=2,class=CODE,delta=1
    36                           	psect	text20,global,reloc=2,class=CODE,delta=1
    37                           	psect	text21,global,reloc=2,class=CODE,delta=1
    38                           	psect	text22,global,reloc=2,class=CODE,delta=1
    39                           	psect	intsave_regs,global,class=BIGRAM,space=1,delta=1,noexec
    40                           	psect	rparam,global,class=COMRAM,space=1,delta=1,noexec
    41                           	psect	temp,global,ovrld,common,class=COMRAM,space=1,delta=1
    42                           	psect	idloc,global,abs,ovrld,class=IDLOC,space=5,delta=1,noexec
    43                           	psect	config,global,abs,ovrld,class=CONFIG,space=4,delta=1,noexec
    44  0000                     
    45                           ; Version 2.20
    46                           ; Generated 12/02/2020 GMT
    47                           ; 
    48                           ; Copyright © 2020, Microchip Technology Inc. and its subsidiaries ("Microchip")
    49                           ; All rights reserved.
    50                           ; 
    51                           ; This software is developed by Microchip Technology Inc. and its subsidiaries ("Microch
      +                          ip").
    52                           ; 
    53                           ; Redistribution and use in source and binary forms, with or without modification, are
    54                           ; permitted provided that the following conditions are met:
    55                           ; 
    56                           ;     1. Redistributions of source code must retain the above copyright notice, this lis
      +                          t of
    57                           ;        conditions and the following disclaimer.
    58                           ; 
    59                           ;     2. Redistributions in binary form must reproduce the above copyright notice, this 
      +                          list
    60                           ;        of conditions and the following disclaimer in the documentation and/or other
    61                           ;        materials provided with the distribution.
    62                           ; 
    63                           ;     3. Microchip's name may not be used to endorse or promote products derived from th
      +                          is
    64                           ;        software without specific prior written permission.
    65                           ; 
    66                           ; THIS SOFTWARE IS PROVIDED BY MICROCHIP "AS IS" AND ANY EXPRESS OR IMPLIED WARRANTIES,
    67                           ; INCLUDING, BUT NOT LIMITED TO, THE IMPLIED WARRANTIES OF MERCHANTABILITY AND FITNESS F
      +                          OR
    68                           ; PURPOSE ARE DISCLAIMED.  IN NO EVENT SHALL MICROCHIP BE LIABLE FOR ANY DIRECT, INDIREC
      +                          T,
    69                           ; INCIDENTAL, SPECIAL, EXEMPLARY, OR CONSEQUENTIAL DAMAGES (INCLUDING BUT NOT LIMITED TO
    70                           ; PROCUREMENT OF SUBSTITUTE GOODS OR SERVICES; LOSS OF USE, DATA OR PROFITS; OR BUSINESS
    71                           ; INTERRUPTION) HOWSOEVER CAUSED AND ON ANY THEORY OF LIABILITY, WHETHER IN CONTRACT, ST
      +                          RICT
    72                           ; LIABILITY, OR TORT (INCLUDING NEGLIGENCE OR OTHERWISE) ARISING IN ANY WAY OUT OF THE U
      +                          SE OF
    73                           ; THIS SOFTWARE, EVEN IF ADVISED OF THE POSSIBILITY OF SUCH DAMAGE.
    74                           ; 
    75                           ; 
    76                           ; Code-generator required, PIC18F4520 Definitions
    77                           ; 
    78                           ; SFR Addresses
    79  0000                     
    80                           	psect	idataCOMRAM
    81  00154A                     __pidataCOMRAM:
    82                           	callstack 0
    83                           
    84                           ;initializer for _vetorHum
    85  00154A  48                 	db	72
    86  00154B  55                 	db	85
    87  00154C  4D                 	db	77
    88  00154D  20                 	db	32
    89  00154E  3A                 	db	58
    90  00154F  20                 	db	32
    91  001550  00                 	db	0
    92                           
    93                           ;initializer for _vetorTemp
    94  001551  54                 	db	84
    95  001552  45                 	db	69
    96  001553  4D                 	db	77
    97  001554  50                 	db	80
    98  001555  3A                 	db	58
    99  001556  20                 	db	32
   100                           
   101                           ;initializer for _vetorTempLocal
   102  001557  23                 	db	35
   103  001558  00                 	db	0
   104  001559  F8                 	db	248
   105  00155A  43                 	db	67
   106                           
   107                           ;initializer for _global_timer_value
   108  00155B  0001               	dw	1
   109  00155D  0000               	dw	0
   110                           
   111                           ;initializer for main_application@auxHum
   112  00155F  30                 	db	48
   113  001560  2E                 	db	46
   114  001561  30                 	db	48
   115                           
   116                           ;initializer for main_application@auxTemp
   117  001562  30                 	db	48
   118  001563  2E                 	db	46
   119  001564  30                 	db	48
   120                           
   121                           ;initializer for _vetorHumLocal
   122  001565  5A                 	db	90
   123  001566  05                 	db	5
   124  001567  25                 	db	37
   125                           
   126                           	psect	idataBANK0
   127  0013FA                     __pidataBANK0:
   128                           	callstack 0
   129                           
   130                           ;initializer for main_application@F3179
   131  0013FA  55                 	db	85
   132  0013FB  53                 	db	83
   133  0013FC  45                 	db	69
   134  0013FD  52                 	db	82
   135  0013FE  20                 	db	32
   136  0013FF  43                 	db	67
   137  001400  4F                 	db	79
   138  001401  4E                 	db	78
   139  001402  45                 	db	69
   140  001403  43                 	db	67
   141  001404  54                 	db	84
   142  001405  41                 	db	65
   143  001406  44                 	db	68
   144  001407  4F                 	db	79
   145  001408  00                 	db	0
   146                           
   147                           ;initializer for main_application@F3181
   148  001409  55                 	db	85
   149  00140A  53                 	db	83
   150  00140B  45                 	db	69
   151  00140C  52                 	db	82
   152  00140D  20                 	db	32
   153  00140E  44                 	db	68
   154  00140F  45                 	db	69
   155  001410  53                 	db	83
   156  001411  43                 	db	67
   157  001412  4F                 	db	79
   158  001413  4E                 	db	78
   159  001414  4E                 	db	78
   160  001415  00                 	db	0
   161                           
   162                           ;initializer for _string_hum
   163  001416  48                 	db	72
   164  001417  55                 	db	85
   165  001418  4D                 	db	77
   166  001419  3A                 	db	58
   167  00141A  20                 	db	32
   168  00141B  00                 	db	0
   169  00141C  00                 	db	0
   170  00141D  00                 	db	0
   171  00141E  00                 	db	0
   172  00141F  00                 	db	0
   173  001420  00                 	db	0
   174  001421  00                 	db	0
   175                           
   176                           ;initializer for _BLUETOOTH_PIN_COMM
   177  001422  41                 	db	65
   178  001423  54                 	db	84
   179  001424  2B                 	db	43
   180  001425  50                 	db	80
   181  001426  49                 	db	73
   182  001427  4E                 	db	78
   183  001428  58                 	db	88
   184  001429  59                 	db	89
   185  00142A  5A                 	db	90
   186  00142B  57                 	db	87
   187  00142C  00                 	db	0
   188                           
   189                           ;initializer for _string_temp
   190  00142D  54                 	db	84
   191  00142E  45                 	db	69
   192  00142F  4D                 	db	77
   193  001430  50                 	db	80
   194  001431  3A                 	db	58
   195  001432  20                 	db	32
   196  001433  00                 	db	0
   197  001434  00                 	db	0
   198  001435  00                 	db	0
   199  001436  00                 	db	0
   200  001437  00                 	db	0
   201                           
   202                           ;initializer for _BLUETOOTH_BAUD_COMM
   203  001438  41                 	db	65
   204  001439  54                 	db	84
   205  00143A  2B                 	db	43
   206  00143B  42                 	db	66
   207  00143C  41                 	db	65
   208  00143D  55                 	db	85
   209  00143E  44                 	db	68
   210  00143F  00                 	db	0
   211                           
   212                           ;initializer for _BLUETOOTH_NAME_COMM
   213  001440  41                 	db	65
   214  001441  54                 	db	84
   215  001442  2B                 	db	43
   216  001443  4E                 	db	78
   217  001444  41                 	db	65
   218  001445  4D                 	db	77
   219  001446  45                 	db	69
   220  001447  00                 	db	0
   221                           
   222                           ;initializer for _adcConfig
   223  001448  00                 	db	0
   224  001449  00                 	db	0
   225  00144A  00                 	db	0
   226  00144B  01                 	db	1
   227  00144C  01                 	db	1
   228  00144D  01                 	db	1
   229                           
   230                           ;initializer for _serialConfig
   231  00144E  00                 	db	0
   232  00144F  00                 	db	0
   233  001450  00                 	db	0
   234  001451  2580               	dw	9600
   235  001453  0000               	dw	0
   236  0000                     _TMR0	set	4054
   237  0000                     _EECON2	set	4007
   238  0000                     _EEDATA	set	4008
   239  0000                     _EEADR	set	4009
   240  0000                     _EECON1bits	set	4006
   241  0000                     _INTCON2bits	set	4081
   242  0000                     _T0CONbits	set	4053
   243  0000                     _TXREG	set	4013
   244  0000                     _PIE1bits	set	3997
   245  0000                     _RCSTAbits	set	4011
   246  0000                     _SPBRG	set	4015
   247  0000                     _TXSTAbits	set	4012
   248  0000                     _BAUDCONbits	set	4024
   249  0000                     _RCONbits	set	4048
   250  0000                     _ADRESL	set	4035
   251  0000                     _ADRESH	set	4036
   252  0000                     _ADCON2bits	set	4032
   253  0000                     _ADCON0bits	set	4034
   254  0000                     _ADCON1bits	set	4033
   255  0000                     _TRISAbits	set	3986
   256  0000                     _TRISC	set	3988
   257  0000                     _PORTD	set	3971
   258  0000                     _LATD	set	3980
   259  0000                     _TRISD	set	3989
   260  0000                     _TRISB	set	3987
   261  0000                     _PORTB	set	3969
   262  0000                     _LATB	set	3978
   263  0000                     _RCREG	set	4014
   264  0000                     _PIR1bits	set	3998
   265  0000                     _INTCONbits	set	4082
   266  0000                     _TRMT	set	32097
   267                           
   268                           	psect	smallconst
   269  000600                     __psmallconst:
   270                           	callstack 0
   271  000600  00                 	db	0
   272  000601  2A                 	db	42
   273  000602  2A                 	db	42
   274  000603  2A                 	db	42
   275  000604  20                 	db	32
   276  000605  4C                 	db	76	;'L'
   277  000606  45                 	db	69	;'E'
   278  000607  49                 	db	73	;'I'
   279  000608  54                 	db	84	;'T'
   280  000609  55                 	db	85	;'U'
   281  00060A  52                 	db	82	;'R'
   282  00060B  41                 	db	65	;'A'
   283  00060C  20                 	db	32
   284  00060D  41                 	db	65	;'A'
   285  00060E  54                 	db	84	;'T'
   286  00060F  55                 	db	85	;'U'
   287  000610  41                 	db	65	;'A'
   288  000611  4C                 	db	76	;'L'
   289  000612  20                 	db	32
   290  000613  2A                 	db	42
   291  000614  2A                 	db	42
   292  000615  2A                 	db	42
   293  000616  0A                 	db	10
   294  000617  00                 	db	0
   295  000618  2A                 	db	42
   296  000619  2A                 	db	42
   297  00061A  2A                 	db	42
   298  00061B  55                 	db	85	;'U'
   299  00061C  4C                 	db	76	;'L'
   300  00061D  54                 	db	84	;'T'
   301  00061E  49                 	db	73	;'I'
   302  00061F  4D                 	db	77	;'M'
   303  000620  4F                 	db	79	;'O'
   304  000621  20                 	db	32
   305  000622  4C                 	db	76	;'L'
   306  000623  4F                 	db	79	;'O'
   307  000624  47                 	db	71	;'G'
   308  000625  2A                 	db	42
   309  000626  2A                 	db	42
   310  000627  2A                 	db	42
   311  000628  0A                 	db	10
   312  000629  00                 	db	0
   313  00062A                     STR_7:
   314  00062A  2A                 	db	42
   315  00062B  2A                 	db	42
   316  00062C  2A                 	db	42
   317  00062D  20                 	db	32
   318  00062E  46                 	db	70	;'F'
   319  00062F  49                 	db	73	;'I'
   320  000630  4D                 	db	77	;'M'
   321  000631  20                 	db	32
   322  000632  4C                 	db	76	;'L'
   323  000633  4F                 	db	79	;'O'
   324  000634  47                 	db	71	;'G'
   325  000635  20                 	db	32
   326  000636  2A                 	db	42
   327  000637  2A                 	db	42
   328  000638  2A                 	db	42
   329  000639  0A                 	db	10
   330  00063A  00                 	db	0
   331  00063B                     STR_11:
   332  00063B  54                 	db	84	;'T'
   333  00063C  45                 	db	69	;'E'
   334  00063D  4D                 	db	77	;'M'
   335  00063E  20                 	db	32
   336  00063F  45                 	db	69	;'E'
   337  000640  4E                 	db	78	;'N'
   338  000641  45                 	db	69	;'E'
   339  000642  52                 	db	82	;'R'
   340  000643  47                 	db	71	;'G'
   341  000644  49                 	db	73	;'I'
   342  000645  41                 	db	65	;'A'
   343  000646  00                 	db	0
   344  000647  4D                 	db	77	;'M'
   345  000648  45                 	db	69	;'E'
   346  000649  4D                 	db	77	;'M'
   347  00064A  2E                 	db	46
   348  00064B  20                 	db	32
   349  00064C  46                 	db	70	;'F'
   350  00064D  55                 	db	85	;'U'
   351  00064E  4C                 	db	76	;'L'
   352  00064F  4C                 	db	76	;'L'
   353  000650  00                 	db	0
   354  000651  53                 	db	83	;'S'
   355  000652  45                 	db	69	;'E'
   356  000653  4D                 	db	77	;'M'
   357  000654  20                 	db	32
   358  000655  4C                 	db	76	;'L'
   359  000656  4F                 	db	79	;'O'
   360  000657  47                 	db	71	;'G'
   361  000658  00                 	db	0
   362  000659                     STR_2:
   363  000659  48                 	db	72	;'H'
   364  00065A  55                 	db	85	;'U'
   365  00065B  4D                 	db	77	;'M'
   366  00065C  44                 	db	68	;'D'
   367  00065D  3A                 	db	58	;':'
   368  00065E  2D                 	db	45
   369  00065F  20                 	db	32
   370  000660  00                 	db	0
   371  000661                     STR_3:
   372  000661  54                 	db	84	;'T'
   373  000662  45                 	db	69	;'E'
   374  000663  4D                 	db	77	;'M'
   375  000664  50                 	db	80	;'P'
   376  000665  3A                 	db	58	;':'
   377  000666  2D                 	db	45
   378  000667  20                 	db	32
   379  000668  00                 	db	0
   380  000669  4A                 	db	74	;'J'
   381  00066A  41                 	db	65	;'A'
   382  00066B  20                 	db	32
   383  00066C  4C                 	db	76	;'L'
   384  00066D  4F                 	db	79	;'O'
   385  00066E  47                 	db	71	;'G'
   386  00066F  00                 	db	0
   387  000670                     STR_1:
   388  000670  45                 	db	69	;'E'
   389  000671  52                 	db	82	;'R'
   390  000672  52                 	db	82	;'R'
   391  000673  4F                 	db	79	;'O'
   392  000674  00                 	db	0
   393  000675                     STR_5:
   394  000675  20                 	db	32
   395  000676  20                 	db	32
   396  000677  00                 	db	0
   397  000678  00                 	db	0	; dummy byte at the end
   398  0000                     
   399                           ; #config settings
   400                           
   401                           	psect	cinit
   402  00120A                     __pcinit:
   403                           	callstack 0
   404  00120A                     start_initialization:
   405                           	callstack 0
   406  00120A                     __initialization:
   407                           	callstack 0
   408                           
   409                           ; Initialize objects allocated to BANK0 (91 bytes)
   410                           ; load TBLPTR registers with __pidataBANK0
   411  00120A  0EFA               	movlw	low __pidataBANK0
   412  00120C  6EF6               	movwf	tblptrl,c
   413  00120E  0E13               	movlw	high __pidataBANK0
   414  001210  6EF7               	movwf	tblptrh,c
   415  001212  0E00               	movlw	low (__pidataBANK0 shr (0+16))
   416  001214  6EF8               	movwf	tblptru,c
   417  001216  EE00  F080         	lfsr	0,__pdataBANK0
   418  00121A  EE10 F05B          	lfsr	1,91
   419  00121E                     copy_data0:
   420  00121E  0009               	tblrd		*+
   421  001220  CFF5 FFEE          	movff	tablat,postinc0
   422  001224  50E5               	movf	postdec1,w,c
   423  001226  50E1               	movf	fsr1l,w,c
   424  001228  E1FA               	bnz	copy_data0
   425                           
   426                           ; Initialize objects allocated to COMRAM (30 bytes)
   427                           ; load TBLPTR registers with __pidataCOMRAM
   428  00122A  0E4A               	movlw	low __pidataCOMRAM
   429  00122C  6EF6               	movwf	tblptrl,c
   430  00122E  0E15               	movlw	high __pidataCOMRAM
   431  001230  6EF7               	movwf	tblptrh,c
   432  001232  0E00               	movlw	low (__pidataCOMRAM shr (0+16))
   433  001234  6EF8               	movwf	tblptru,c
   434  001236  EE00  F049         	lfsr	0,__pdataCOMRAM
   435  00123A  EE10 F01E          	lfsr	1,30
   436  00123E                     copy_data1:
   437  00123E  0009               	tblrd		*+
   438  001240  CFF5 FFEE          	movff	tablat,postinc0
   439  001244  50E5               	movf	postdec1,w,c
   440  001246  50E1               	movf	fsr1l,w,c
   441  001248  E1FA               	bnz	copy_data1
   442                           
   443                           ; Clear objects allocated to BANK0 (14 bytes)
   444  00124A  EE00  F0F1         	lfsr	0,__pbssBANK0
   445  00124E  0E0E               	movlw	14
   446  001250                     clear_0:
   447  001250  6AEE               	clrf	postinc0,c
   448  001252  06E8               	decf	wreg,f,c
   449  001254  E1FD               	bnz	clear_0
   450                           
   451                           ; Clear objects allocated to COMRAM (35 bytes)
   452  001256  EE00  F026         	lfsr	0,__pbssCOMRAM
   453  00125A  0E23               	movlw	35
   454  00125C                     clear_1:
   455  00125C  6AEE               	clrf	postinc0,c
   456  00125E  06E8               	decf	wreg,f,c
   457  001260  E1FD               	bnz	clear_1
   458  001262                     end_of_initialization:
   459                           	callstack 0
   460  001262                     __end_of__initialization:
   461                           	callstack 0
   462  001262  9067               	bcf	int$flags,0,c	;clear compiler interrupt flag (level 1)
   463  001264  9267               	bcf	int$flags,1,c	;clear compiler interrupt flag (level 2)
   464  001266  0E00               	movlw	low (__Lmediumconst shr (0+16))
   465  001268  6EF8               	movwf	tblptru,c
   466  00126A  0100               	movlb	0
   467  00126C  EF3D  F003         	goto	_main	;jump to C main() function
   468                           
   469                           	psect	bssCOMRAM
   470  000026                     __pbssCOMRAM:
   471                           	callstack 0
   472  000026                     Timer0_WaitMS@timeStart:
   473                           	callstack 0
   474  000026                     	ds	4
   475  00002A                     _t:
   476                           	callstack 0
   477  00002A                     	ds	4
   478  00002E                     _tickHook_func_prt:
   479                           	callstack 0
   480  00002E                     	ds	2
   481  000030                     main_application@localHum:
   482                           	callstack 0
   483  000030                     	ds	2
   484  000032                     main_application@localTemp:
   485                           	callstack 0
   486  000032                     	ds	2
   487  000034                     main_application@addr:
   488                           	callstack 0
   489  000034                     	ds	1
   490  000035                     main_application@localVoltageStatus:
   491                           	callstack 0
   492  000035                     	ds	1
   493  000036                     main_application@localUserState:
   494                           	callstack 0
   495  000036                     	ds	1
   496  000037                     	ds	1
   497  000038                     	ds	1
   498  000039                     	ds	1
   499  00003A                     _currLog:
   500                           	callstack 0
   501  00003A                     	ds	1
   502  00003B                     _UserConnected:
   503                           	callstack 0
   504  00003B                     	ds	1
   505  00003C                     _firstReceive:
   506                           	callstack 0
   507  00003C                     	ds	1
   508  00003D                     _byteReceived:
   509                           	callstack 0
   510  00003D                     	ds	1
   511  00003E                     _i:
   512                           	callstack 0
   513  00003E                     	ds	1
   514  00003F                     _count:
   515                           	callstack 0
   516  00003F                     	ds	1
   517  000040                     _address:
   518                           	callstack 0
   519  000040                     	ds	1
   520  000041                     _TimeIsElapsed:
   521                           	callstack 0
   522  000041                     	ds	1
   523  000042                     _vector:
   524                           	callstack 0
   525  000042                     	ds	3
   526  000045                     _humidity:
   527                           	callstack 0
   528  000045                     	ds	2
   529  000047                     _temperature:
   530                           	callstack 0
   531  000047                     	ds	2
   532                           
   533                           	psect	dataCOMRAM
   534  000049                     __pdataCOMRAM:
   535                           	callstack 0
   536  000049                     _vetorHum:
   537                           	callstack 0
   538  000049                     	ds	7
   539  000050                     _vetorTemp:
   540                           	callstack 0
   541  000050                     	ds	6
   542  000056                     _vetorTempLocal:
   543                           	callstack 0
   544  000056                     	ds	4
   545  00005A                     _global_timer_value:
   546                           	callstack 0
   547  00005A                     	ds	4
   548  00005E                     main_application@auxHum:
   549                           	callstack 0
   550  00005E                     	ds	3
   551  000061                     main_application@auxTemp:
   552                           	callstack 0
   553  000061                     	ds	3
   554  000064                     _vetorHumLocal:
   555                           	callstack 0
   556  000064                     	ds	3
   557                           
   558                           	psect	bssBANK0
   559  0000F1                     __pbssBANK0:
   560                           	callstack 0
   561  0000F1                     _segundo:
   562                           	callstack 0
   563  0000F1                     	ds	9
   564  0000FA                     _timerConfig:
   565                           	callstack 0
   566  0000FA                     	ds	5
   567                           
   568                           	psect	dataBANK0
   569  000080                     __pdataBANK0:
   570                           	callstack 0
   571  000080                     main_application@F3179:
   572                           	callstack 0
   573  000080                     	ds	15
   574  00008F                     main_application@F3181:
   575                           	callstack 0
   576  00008F                     	ds	13
   577  00009C                     _string_hum:
   578                           	callstack 0
   579  00009C                     	ds	12
   580  0000A8                     _BLUETOOTH_PIN_COMM:
   581                           	callstack 0
   582  0000A8                     	ds	11
   583  0000B3                     _string_temp:
   584                           	callstack 0
   585  0000B3                     	ds	11
   586  0000BE                     _BLUETOOTH_BAUD_COMM:
   587                           	callstack 0
   588  0000BE                     	ds	8
   589  0000C6                     _BLUETOOTH_NAME_COMM:
   590                           	callstack 0
   591  0000C6                     	ds	8
   592  0000CE                     _adcConfig:
   593                           	callstack 0
   594  0000CE                     	ds	6
   595  0000D4                     _serialConfig:
   596                           	callstack 0
   597  0000D4                     	ds	7
   598                           
   599                           	psect	cstackBANK0
   600  0000DB                     __pcstackBANK0:
   601                           	callstack 0
   602  0000DB                     ??_Display_WriteString:
   603  0000DB                     Serial_1_Config@serialConfig:
   604                           	callstack 0
   605                           
   606                           ; 2 bytes @ 0x0
   607  0000DB                     	ds	2
   608  0000DD                     ??_Serial_1_Config:
   609                           
   610                           ; 1 bytes @ 0x2
   611  0000DD                     	ds	4
   612  0000E1                     Serial_1_Config@error_8LOW:
   613                           	callstack 0
   614                           
   615                           ; 1 bytes @ 0x6
   616  0000E1                     	ds	1
   617  0000E2                     Serial_1_Config@error_16HIGH:
   618                           	callstack 0
   619                           
   620                           ; 1 bytes @ 0x7
   621  0000E2                     	ds	1
   622  0000E3                     Serial_1_Config@brg8LOW:
   623                           	callstack 0
   624                           
   625                           ; 1 bytes @ 0x8
   626  0000E3                     	ds	1
   627  0000E4                     Serial_1_Config@brg8HIGH:
   628                           	callstack 0
   629                           
   630                           ; 1 bytes @ 0x9
   631  0000E4                     	ds	1
   632  0000E5                     Serial_1_Config@brg16HIGH:
   633                           	callstack 0
   634                           
   635                           ; 1 bytes @ 0xA
   636  0000E5                     	ds	1
   637  0000E6                     Serial_1_Config@error_8HIGH:
   638                           	callstack 0
   639                           
   640                           ; 1 bytes @ 0xB
   641  0000E6                     	ds	1
   642  0000E7                     Serial_1_Config@error_min:
   643                           	callstack 0
   644                           
   645                           ; 1 bytes @ 0xC
   646  0000E7                     	ds	1
   647  0000E8                     ??_main:
   648                           
   649                           ; 1 bytes @ 0xD
   650  0000E8                     	ds	2
   651  0000EA                     main@s:
   652                           	callstack 0
   653                           
   654                           ; 1 bytes @ 0xF
   655  0000EA                     	ds	1
   656  0000EB                     main@sum:
   657                           	callstack 0
   658                           
   659                           ; 2 bytes @ 0x10
   660  0000EB                     	ds	2
   661  0000ED                     main@Rh_byte1:
   662                           	callstack 0
   663                           
   664                           ; 1 bytes @ 0x12
   665  0000ED                     	ds	1
   666  0000EE                     main@Rh_byte2:
   667                           	callstack 0
   668                           
   669                           ; 1 bytes @ 0x13
   670  0000EE                     	ds	1
   671  0000EF                     main@Temp_byte1:
   672                           	callstack 0
   673                           
   674                           ; 1 bytes @ 0x14
   675  0000EF                     	ds	1
   676  0000F0                     main@Temp_byte2:
   677                           	callstack 0
   678                           
   679                           ; 1 bytes @ 0x15
   680  0000F0                     	ds	1
   681                           
   682                           	psect	cstackCOMRAM
   683  000001                     __pcstackCOMRAM:
   684                           	callstack 0
   685  000001                     ??i2_Display_WriteByte:
   686  000001                     User_SetState@state:
   687                           	callstack 0
   688  000001                     i2Display_SendByte@comm:
   689                           	callstack 0
   690  000001                     tickHook_Execute@global_timer_value:
   691                           	callstack 0
   692                           
   693                           ; 2 bytes @ 0x0
   694  000001                     	ds	1
   695  000002                     ??i2_Display_SendByte:
   696  000002                     i2Display_WriteByte@byte:
   697                           	callstack 0
   698                           
   699                           ; 1 bytes @ 0x1
   700  000002                     	ds	1
   701  000003                     i2Display_SendByte@byte:
   702                           	callstack 0
   703  000003                     i2Display_WriteByte@auxByte:
   704                           	callstack 0
   705                           
   706                           ; 1 bytes @ 0x2
   707  000003                     	ds	1
   708  000004                     i2Display_SendByte@auxByte:
   709                           	callstack 0
   710  000004                     i2Display_WriteString@string:
   711                           	callstack 0
   712                           
   713                           ; 2 bytes @ 0x3
   714  000004                     	ds	2
   715  000006                     i2Display_WriteString@length:
   716                           	callstack 0
   717                           
   718                           ; 1 bytes @ 0x5
   719  000006                     	ds	1
   720  000007                     i2Display_WriteString@address:
   721                           	callstack 0
   722                           
   723                           ; 1 bytes @ 0x6
   724  000007                     	ds	1
   725  000008                     ??i2_Display_WriteString:
   726                           
   727                           ; 1 bytes @ 0x7
   728  000008                     	ds	7
   729  00000F                     i2Display_WriteString@auxLength:
   730                           	callstack 0
   731                           
   732                           ; 1 bytes @ 0xE
   733  00000F                     	ds	1
   734  000010                     ??_TC0INT:
   735                           
   736                           ; 1 bytes @ 0xF
   737  000010                     	ds	9
   738  000019                     ??_DHT11_Start:
   739  000019                     ??_DHT11_Check_Response:
   740  000019                     ??_read_data:
   741  000019                     ??_Display_WriteByte:
   742  000019                     ??_sendNibble:
   743  000019                     ?___awdiv:
   744                           	callstack 0
   745  000019                     ?___awmod:
   746                           	callstack 0
   747  000019                     ?___lwdiv:
   748                           	callstack 0
   749  000019                     ?___lwmod:
   750                           	callstack 0
   751  000019                     ?___lldiv:
   752                           	callstack 0
   753  000019                     Display_SendByte@comm:
   754                           	callstack 0
   755  000019                     EEPROM_DataWrite@addr:
   756                           	callstack 0
   757  000019                     ___awdiv@dividend:
   758                           	callstack 0
   759  000019                     ___awmod@dividend:
   760                           	callstack 0
   761  000019                     ___lwdiv@dividend:
   762                           	callstack 0
   763  000019                     ___lwmod@dividend:
   764                           	callstack 0
   765  000019                     ___lldiv@dividend:
   766                           	callstack 0
   767                           
   768                           ; 4 bytes @ 0x18
   769  000019                     	ds	1
   770  00001A                     ??_Display_SendByte:
   771  00001A                     sendNibble@nibble:
   772                           	callstack 0
   773  00001A                     Display_WriteByte@byte:
   774                           	callstack 0
   775  00001A                     EEPROM_DataWrite@data:
   776                           	callstack 0
   777                           
   778                           ; 1 bytes @ 0x19
   779  00001A                     	ds	1
   780  00001B                     read_data@i:
   781                           	callstack 0
   782  00001B                     Display_SendByte@byte:
   783                           	callstack 0
   784  00001B                     Display_WriteByte@auxByte:
   785                           	callstack 0
   786  00001B                     EEPROM_Erase@addr:
   787                           	callstack 0
   788  00001B                     ___awdiv@divisor:
   789                           	callstack 0
   790  00001B                     ___awmod@divisor:
   791                           	callstack 0
   792  00001B                     ___lwdiv@divisor:
   793                           	callstack 0
   794  00001B                     ___lwmod@divisor:
   795                           	callstack 0
   796                           
   797                           ; 2 bytes @ 0x1A
   798  00001B                     	ds	1
   799  00001C                     read_data@j:
   800                           	callstack 0
   801  00001C                     Display_SendByte@auxByte:
   802                           	callstack 0
   803  00001C                     Display_WriteString@string:
   804                           	callstack 0
   805                           
   806                           ; 2 bytes @ 0x1B
   807  00001C                     	ds	1
   808  00001D                     ??_DisplayLCD_Init:
   809  00001D                     ___awdiv@counter:
   810                           	callstack 0
   811  00001D                     ___awmod@counter:
   812                           	callstack 0
   813  00001D                     ___lwdiv@counter:
   814                           	callstack 0
   815  00001D                     ___lwmod@counter:
   816                           	callstack 0
   817  00001D                     ___lldiv@divisor:
   818                           	callstack 0
   819                           
   820                           ; 4 bytes @ 0x1C
   821  00001D                     	ds	1
   822  00001E                     Display_WriteString@length:
   823                           	callstack 0
   824  00001E                     ___awdiv@sign:
   825                           	callstack 0
   826  00001E                     ___awmod@sign:
   827                           	callstack 0
   828  00001E                     ___lwdiv@quotient:
   829                           	callstack 0
   830                           
   831                           ; 2 bytes @ 0x1D
   832  00001E                     	ds	1
   833  00001F                     Display_WriteString@address:
   834                           	callstack 0
   835  00001F                     ___awdiv@quotient:
   836                           	callstack 0
   837                           
   838                           ; 2 bytes @ 0x1E
   839  00001F                     	ds	1
   840  000020                     Display_WriteString@auxLength:
   841                           	callstack 0
   842                           
   843                           ; 1 bytes @ 0x1F
   844  000020                     	ds	1
   845  000021                     ___lldiv@quotient:
   846                           	callstack 0
   847                           
   848                           ; 4 bytes @ 0x20
   849  000021                     	ds	4
   850  000025                     ___lldiv@counter:
   851                           	callstack 0
   852                           
   853                           ; 1 bytes @ 0x24
   854  000025                     	ds	1
   855                           
   856 ;;
   857 ;;Main: autosize = 0, tempsize = 2, incstack = 0, save=0
   858 ;;
   859 ;; *************** function _main *****************
   860 ;; Defined at:
   861 ;;		line 127 in file "src/main.c"
   862 ;; Parameters:    Size  Location     Type
   863 ;;		None
   864 ;; Auto vars:     Size  Location     Type
   865 ;;  sum             2   16[BANK0 ] unsigned short 
   866 ;;  TEMP            2    0        unsigned short 
   867 ;;  RH              2    0        unsigned short 
   868 ;;  Temp_byte2      1   21[BANK0 ] unsigned char 
   869 ;;  Temp_byte1      1   20[BANK0 ] unsigned char 
   870 ;;  Rh_byte2        1   19[BANK0 ] unsigned char 
   871 ;;  Rh_byte1        1   18[BANK0 ] unsigned char 
   872 ;;  s               1   15[BANK0 ] unsigned char 
   873 ;;  check           1    0        unsigned char 
   874 ;; Return value:  Size  Location     Type
   875 ;;                  1    wreg      void 
   876 ;; Registers used:
   877 ;;		wreg, fsr0l, fsr0h, fsr2l, fsr2h, status,2, status,0, tblptrl, tblptrh, tblptru, prodl, prodh, cstack
   878 ;; Tracked objects:
   879 ;;		On entry : 0/0
   880 ;;		On exit  : 0/0
   881 ;;		Unchanged: 0/0
   882 ;; Data sizes:     COMRAM   BANK0   BANK1   BANK2   BANK3   BANK4   BANK5
   883 ;;      Params:         0       0       0       0       0       0       0
   884 ;;      Locals:         0       7       0       0       0       0       0
   885 ;;      Temps:          0       2       0       0       0       0       0
   886 ;;      Totals:         0       9       0       0       0       0       0
   887 ;;Total ram usage:        9 bytes
   888 ;; Hardware stack levels required when called: 5
   889 ;; This function calls:
   890 ;;		_DHT11_Check_Response
   891 ;;		_DHT11_Start
   892 ;;		_DisplayLCD_Init
   893 ;;		_Display_SendByte
   894 ;;		_Display_WriteByte
   895 ;;		_Display_WriteString
   896 ;;		_EEPROM_Erase
   897 ;;		_Serial_1_Config
   898 ;;		___awdiv
   899 ;;		___awmod
   900 ;;		___lwdiv
   901 ;;		___lwmod
   902 ;;		_read_data
   903 ;; This function is called by:
   904 ;;		Startup code after reset
   905 ;; This function uses a non-reentrant model
   906 ;;
   907                           
   908                           	psect	text0
   909  00067A                     __ptext0:
   910                           	callstack 0
   911  00067A                     _main:
   912                           	callstack 26
   913  00067A                     
   914                           ;src/main.c: 135:     Serial_1_Config(&serialConfig);
   915  00067A  0ED4               	movlw	low _serialConfig
   916  00067C  0100               	movlb	0	; () banked
   917  00067E  6FDB               	movwf	Serial_1_Config@serialConfig& (0+255),b
   918  000680  0E00               	movlw	high _serialConfig
   919  000682  6FDC               	movwf	(Serial_1_Config@serialConfig+1)& (0+255),b
   920  000684  EC9B  F004         	call	_Serial_1_Config	;wreg free
   921  000688                     
   922                           ;src/main.c: 138:     _delay((unsigned long)((300)*(12000000UL/4000.0)));
   923  000688  0E05               	movlw	5
   924  00068A  0100               	movlb	0	; () banked
   925  00068C  6FE9               	movwf	(??_main+1)& (0+255),b
   926  00068E  0E91               	movlw	145
   927  000690  6FE8               	movwf	??_main& (0+255),b
   928  000692  0ECF               	movlw	207
   929  000694                     u2167:
   930  000694  2EE8               	decfsz	wreg,f,c
   931  000696  D7FE               	bra	u2167
   932  000698  2FE8               	decfsz	??_main& (0+255),f,b
   933  00069A  D7FC               	bra	u2167
   934  00069C  2FE9               	decfsz	(??_main+1)& (0+255),f,b
   935  00069E  D7FA               	bra	u2167
   936  0006A0  D000               	nop2	
   937  0006A2                     
   938                           ;src/main.c: 139:     DisplayLCD_Init();
   939  0006A2  ECCE  F009         	call	_DisplayLCD_Init	;wreg free
   940  0006A6                     
   941                           ;src/main.c: 144:     if(0x00 == 0x00) TRISB = (TRISB & (~(1 << 0))); else TRISB = (TRIS
      +                          B | (1 << 0));;
   942  0006A6  EC80  F00A         	call	_EEPROM_Erase	;wreg free
   943  0006AA  5093               	movf	147,w,c	;volatile
   944  0006AC  0BFE               	andlw	254
   945  0006AE  6E93               	movwf	147,c	;volatile
   946  0006B0  5093               	movf	147,w,c	;volatile
   947  0006B2  0BFD               	andlw	253
   948  0006B4  6E93               	movwf	147,c	;volatile
   949  0006B6  5081               	movf	129,w,c	;volatile
   950  0006B8  0BFE               	andlw	254
   951  0006BA  6E8A               	movwf	138,c	;volatile
   952  0006BC  5081               	movf	129,w,c	;volatile
   953  0006BE  0BFD               	andlw	253
   954  0006C0  6E8A               	movwf	138,c	;volatile
   955  0006C2  5095               	movf	149,w,c	;volatile
   956  0006C4  0901               	iorlw	1
   957  0006C6  6E95               	movwf	149,c	;volatile
   958  0006C8                     
   959                           ;src/main.c: 157:     uint8_t s = 0x00;
   960  0006C8  0E00               	movlw	0
   961  0006CA  0100               	movlb	0	; () banked
   962  0006CC  6FEA               	movwf	main@s& (0+255),b
   963  0006CE                     
   964                           ; BSR set to: 0
   965                           ;src/main.c: 158:     _delay((unsigned long)((10000)*(12000000UL/4000.0)));
   966  0006CE  0E99               	movlw	153
   967  0006D0  0100               	movlb	0	; () banked
   968  0006D2  6FE9               	movwf	(??_main+1)& (0+255),b
   969  0006D4  0E31               	movlw	49
   970  0006D6  6FE8               	movwf	??_main& (0+255),b
   971  0006D8  0EA2               	movlw	162
   972  0006DA                     u2177:
   973  0006DA  2EE8               	decfsz	wreg,f,c
   974  0006DC  D7FE               	bra	u2177
   975  0006DE  2FE8               	decfsz	??_main& (0+255),f,b
   976  0006E0  D7FC               	bra	u2177
   977  0006E2  2FE9               	decfsz	(??_main+1)& (0+255),f,b
   978  0006E4  D7FA               	bra	u2177
   979  0006E6  F000               	nop	
   980  0006E8                     l3476:
   981                           
   982                           ;src/main.c: 161:     {;src/main.c: 163:         DHT11_Start();
   983  0006E8  EC93  F00A         	call	_DHT11_Start	;wreg free
   984  0006EC                     
   985                           ;src/main.c: 164:         DHT11_Check_Response();
   986  0006EC  EC2B  F00A         	call	_DHT11_Check_Response	;wreg free
   987  0006F0                     
   988                           ;src/main.c: 167:         Rh_byte1 = read_data();
   989  0006F0  EC30  F007         	call	_read_data	;wreg free
   990  0006F4  0100               	movlb	0	; () banked
   991  0006F6  6FED               	movwf	main@Rh_byte1& (0+255),b
   992  0006F8                     
   993                           ; BSR set to: 0
   994                           ;src/main.c: 168:         Rh_byte2 = read_data();
   995  0006F8  EC30  F007         	call	_read_data	;wreg free
   996  0006FC  0100               	movlb	0	; () banked
   997  0006FE  6FEE               	movwf	main@Rh_byte2& (0+255),b
   998  000700                     
   999                           ; BSR set to: 0
  1000                           ;src/main.c: 170:         Temp_byte1 = read_data();
  1001  000700  EC30  F007         	call	_read_data	;wreg free
  1002  000704  0100               	movlb	0	; () banked
  1003  000706  6FEF               	movwf	main@Temp_byte1& (0+255),b
  1004  000708                     
  1005                           ; BSR set to: 0
  1006                           ;src/main.c: 171:         Temp_byte2 = read_data();
  1007  000708  EC30  F007         	call	_read_data	;wreg free
  1008  00070C  0100               	movlb	0	; () banked
  1009  00070E  6FF0               	movwf	main@Temp_byte2& (0+255),b
  1010  000710                     
  1011                           ; BSR set to: 0
  1012                           ;src/main.c: 173:         sum = read_data();
  1013  000710  EC30  F007         	call	_read_data	;wreg free
  1014  000714  0100               	movlb	0	; () banked
  1015  000716  6FE8               	movwf	??_main& (0+255),b
  1016  000718  51E8               	movf	??_main& (0+255),w,b
  1017  00071A  6FEB               	movwf	main@sum& (0+255),b
  1018  00071C  6BEC               	clrf	(main@sum+1)& (0+255),b
  1019  00071E                     
  1020                           ; BSR set to: 0
  1021                           ;src/main.c: 175:         if(sum != (Rh_byte1 + Rh_byte2 + Temp_byte1 + Temp_byte2))
  1022  00071E  51EE               	movf	main@Rh_byte2& (0+255),w,b
  1023  000720  C0ED  F0E8         	movff	main@Rh_byte1,??_main
  1024  000724  6BE9               	clrf	(??_main+1)& (0+255),b
  1025  000726  27E8               	addwf	??_main& (0+255),f,b
  1026  000728  0E00               	movlw	0
  1027  00072A  23E9               	addwfc	(??_main+1)& (0+255),f,b
  1028  00072C  51EF               	movf	main@Temp_byte1& (0+255),w,b
  1029  00072E  27E8               	addwf	??_main& (0+255),f,b
  1030  000730  0E00               	movlw	0
  1031  000732  23E9               	addwfc	(??_main+1)& (0+255),f,b
  1032  000734  51F0               	movf	main@Temp_byte2& (0+255),w,b
  1033  000736  27E8               	addwf	??_main& (0+255),f,b
  1034  000738  0E00               	movlw	0
  1035  00073A  23E9               	addwfc	(??_main+1)& (0+255),f,b
  1036  00073C  51EB               	movf	main@sum& (0+255),w,b
  1037  00073E  19E8               	xorwf	??_main& (0+255),w,b
  1038  000740  E109               	bnz	u2020
  1039  000742  51EC               	movf	(main@sum+1)& (0+255),w,b
  1040  000744  19E9               	xorwf	(??_main+1)& (0+255),w,b
  1041  000746  B4D8               	btfsc	status,2,c
  1042  000748  EFA8  F003         	goto	u2021
  1043  00074C  EFAA  F003         	goto	u2020
  1044  000750                     u2021:
  1045  000750  EFC1  F003         	goto	l3498
  1046  000754                     u2020:
  1047  000754                     
  1048                           ; BSR set to: 0
  1049                           ;src/main.c: 176:         {;src/main.c: 177:             Display_SendByte(0b00000001, 0)
      +                          ;
  1050  000754  0E00               	movlw	0
  1051  000756  6E19               	movwf	Display_SendByte@comm^0,c
  1052  000758  0E01               	movlw	1
  1053  00075A  EC12  F008         	call	_Display_SendByte
  1054  00075E                     
  1055                           ;src/main.c: 178:             _delay((unsigned long)((3)*(12000000UL/4000.0)));
  1056  00075E  0E0C               	movlw	12
  1057  000760  0100               	movlb	0	; () banked
  1058  000762  6FE8               	movwf	??_main& (0+255),b
  1059  000764  0EAF               	movlw	175
  1060  000766                     u2187:
  1061  000766  2EE8               	decfsz	wreg,f,c
  1062  000768  D7FE               	bra	u2187
  1063  00076A  2FE8               	decfsz	??_main& (0+255),f,b
  1064  00076C  D7FC               	bra	u2187
  1065  00076E                     
  1066                           ;src/main.c: 179:             Display_WriteString("ERRO", 5, 0);
  1067  00076E  0E70               	movlw	low STR_1
  1068  000770  6E1C               	movwf	Display_WriteString@string^0,c
  1069  000772  0E06               	movlw	high STR_1
  1070  000774  6E1D               	movwf	(Display_WriteString@string+1)^0,c
  1071  000776  0E05               	movlw	5
  1072  000778  6E1E               	movwf	Display_WriteString@length^0,c
  1073  00077A  0E00               	movlw	0
  1074  00077C  6E1F               	movwf	Display_WriteString@address^0,c
  1075  00077E  ECD4  F007         	call	_Display_WriteString	;wreg free
  1076  000782                     l3498:
  1077                           
  1078                           ;src/main.c: 182:         Display_SendByte(0b00000001, 0);
  1079  000782  0E00               	movlw	0
  1080  000784  6E19               	movwf	Display_SendByte@comm^0,c
  1081  000786  0E01               	movlw	1
  1082  000788  EC12  F008         	call	_Display_SendByte
  1083  00078C                     
  1084                           ;src/main.c: 183:         _delay((unsigned long)((3)*(12000000UL/4000.0)));
  1085  00078C  0E0C               	movlw	12
  1086  00078E  0100               	movlb	0	; () banked
  1087  000790  6FE8               	movwf	??_main& (0+255),b
  1088  000792  0EAF               	movlw	175
  1089  000794                     u2197:
  1090  000794  2EE8               	decfsz	wreg,f,c
  1091  000796  D7FE               	bra	u2197
  1092  000798  2FE8               	decfsz	??_main& (0+255),f,b
  1093  00079A  D7FC               	bra	u2197
  1094                           
  1095                           ;src/main.c: 184:         Display_WriteString("HUMD:- ", 8, 0);
  1096  00079C  0E59               	movlw	low STR_2
  1097  00079E  6E1C               	movwf	Display_WriteString@string^0,c
  1098  0007A0  0E06               	movlw	high STR_2
  1099  0007A2  6E1D               	movwf	(Display_WriteString@string+1)^0,c
  1100  0007A4  0E08               	movlw	8
  1101  0007A6  6E1E               	movwf	Display_WriteString@length^0,c
  1102  0007A8  0E00               	movlw	0
  1103  0007AA  6E1F               	movwf	Display_WriteString@address^0,c
  1104  0007AC  ECD4  F007         	call	_Display_WriteString	;wreg free
  1105  0007B0                     
  1106                           ;src/main.c: 185:         Display_WriteByte((Rh_byte1 / 10) + 48);
  1107  0007B0  C0ED  F019         	movff	main@Rh_byte1,___awdiv@dividend
  1108  0007B4  6A1A               	clrf	(___awdiv@dividend+1)^0,c
  1109  0007B6  0E00               	movlw	0
  1110  0007B8  6E1C               	movwf	(___awdiv@divisor+1)^0,c
  1111  0007BA  0E0A               	movlw	10
  1112  0007BC  6E1B               	movwf	___awdiv@divisor^0,c
  1113  0007BE  EC76  F006         	call	___awdiv	;wreg free
  1114  0007C2  5019               	movf	?___awdiv^0,w,c
  1115  0007C4  0F30               	addlw	48
  1116  0007C6  EC6A  F009         	call	_Display_WriteByte
  1117  0007CA                     
  1118                           ;src/main.c: 186:         Display_WriteByte(((Rh_byte1 % 10)) + 48);
  1119  0007CA  C0ED  F019         	movff	main@Rh_byte1,___awmod@dividend
  1120  0007CE  6A1A               	clrf	(___awmod@dividend+1)^0,c
  1121  0007D0  0E00               	movlw	0
  1122  0007D2  6E1C               	movwf	(___awmod@divisor+1)^0,c
  1123  0007D4  0E0A               	movlw	10
  1124  0007D6  6E1B               	movwf	___awmod@divisor^0,c
  1125  0007D8  ECD8  F006         	call	___awmod	;wreg free
  1126  0007DC  5019               	movf	?___awmod^0,w,c
  1127  0007DE  0F30               	addlw	48
  1128  0007E0  EC6A  F009         	call	_Display_WriteByte
  1129  0007E4                     
  1130                           ;src/main.c: 187:         Display_WriteByte(0x2e);
  1131  0007E4  0E2E               	movlw	46
  1132  0007E6  EC6A  F009         	call	_Display_WriteByte
  1133  0007EA                     
  1134                           ;src/main.c: 188:         Display_WriteByte((Rh_byte2 / 10) + 48);
  1135  0007EA  C0EE  F019         	movff	main@Rh_byte2,___awdiv@dividend
  1136  0007EE  6A1A               	clrf	(___awdiv@dividend+1)^0,c
  1137  0007F0  0E00               	movlw	0
  1138  0007F2  6E1C               	movwf	(___awdiv@divisor+1)^0,c
  1139  0007F4  0E0A               	movlw	10
  1140  0007F6  6E1B               	movwf	___awdiv@divisor^0,c
  1141  0007F8  EC76  F006         	call	___awdiv	;wreg free
  1142  0007FC  5019               	movf	?___awdiv^0,w,c
  1143  0007FE  0F30               	addlw	48
  1144  000800  EC6A  F009         	call	_Display_WriteByte
  1145  000804                     
  1146                           ;src/main.c: 189:         Display_WriteByte(((Rh_byte2 % 10)) + 48);
  1147  000804  C0EE  F019         	movff	main@Rh_byte2,___awmod@dividend
  1148  000808  6A1A               	clrf	(___awmod@dividend+1)^0,c
  1149  00080A  0E00               	movlw	0
  1150  00080C  6E1C               	movwf	(___awmod@divisor+1)^0,c
  1151  00080E  0E0A               	movlw	10
  1152  000810  6E1B               	movwf	___awmod@divisor^0,c
  1153  000812  ECD8  F006         	call	___awmod	;wreg free
  1154  000816  5019               	movf	?___awmod^0,w,c
  1155  000818  0F30               	addlw	48
  1156  00081A  EC6A  F009         	call	_Display_WriteByte
  1157  00081E                     
  1158                           ;src/main.c: 191:         Display_WriteByte(0x20);
  1159  00081E  0E20               	movlw	32
  1160  000820  EC6A  F009         	call	_Display_WriteByte
  1161  000824                     
  1162                           ;src/main.c: 192:         Display_WriteByte((sum / 10) + 48);
  1163  000824  C0EB  F019         	movff	main@sum,___lwdiv@dividend
  1164  000828  C0EC  F01A         	movff	main@sum+1,___lwdiv@dividend+1
  1165  00082C  0E00               	movlw	0
  1166  00082E  6E1C               	movwf	(___lwdiv@divisor+1)^0,c
  1167  000830  0E0A               	movlw	10
  1168  000832  6E1B               	movwf	___lwdiv@divisor^0,c
  1169  000834  ECCB  F008         	call	___lwdiv	;wreg free
  1170  000838  5019               	movf	?___lwdiv^0,w,c
  1171  00083A  0F30               	addlw	48
  1172  00083C  EC6A  F009         	call	_Display_WriteByte
  1173  000840                     
  1174                           ;src/main.c: 193:         Display_WriteByte((sum % 10) + 48);
  1175  000840  C0EB  F019         	movff	main@sum,___lwmod@dividend
  1176  000844  C0EC  F01A         	movff	main@sum+1,___lwmod@dividend+1
  1177  000848  0E00               	movlw	0
  1178  00084A  6E1C               	movwf	(___lwmod@divisor+1)^0,c
  1179  00084C  0E0A               	movlw	10
  1180  00084E  6E1B               	movwf	___lwmod@divisor^0,c
  1181  000850  EC38  F009         	call	___lwmod	;wreg free
  1182  000854  5019               	movf	?___lwmod^0,w,c
  1183  000856  0F30               	addlw	48
  1184  000858  EC6A  F009         	call	_Display_WriteByte
  1185  00085C                     
  1186                           ;src/main.c: 196:         Display_SendByte((0b10000000 | 0b01000000), 0);
  1187  00085C  0E00               	movlw	0
  1188  00085E  6E19               	movwf	Display_SendByte@comm^0,c
  1189  000860  0EC0               	movlw	192
  1190  000862  EC12  F008         	call	_Display_SendByte
  1191  000866                     
  1192                           ;src/main.c: 197:         Display_WriteString("TEMP:- ", 8, 0);
  1193  000866  0E61               	movlw	low STR_3
  1194  000868  6E1C               	movwf	Display_WriteString@string^0,c
  1195  00086A  0E06               	movlw	high STR_3
  1196  00086C  6E1D               	movwf	(Display_WriteString@string+1)^0,c
  1197  00086E  0E08               	movlw	8
  1198  000870  6E1E               	movwf	Display_WriteString@length^0,c
  1199  000872  0E00               	movlw	0
  1200  000874  6E1F               	movwf	Display_WriteString@address^0,c
  1201  000876  ECD4  F007         	call	_Display_WriteString	;wreg free
  1202                           
  1203                           ;src/main.c: 198:         Display_WriteByte((Temp_byte1 / 10) + 48);
  1204  00087A  C0EF  F019         	movff	main@Temp_byte1,___awdiv@dividend
  1205  00087E  6A1A               	clrf	(___awdiv@dividend+1)^0,c
  1206  000880  0E00               	movlw	0
  1207  000882  6E1C               	movwf	(___awdiv@divisor+1)^0,c
  1208  000884  0E0A               	movlw	10
  1209  000886  6E1B               	movwf	___awdiv@divisor^0,c
  1210  000888  EC76  F006         	call	___awdiv	;wreg free
  1211  00088C  5019               	movf	?___awdiv^0,w,c
  1212  00088E  0F30               	addlw	48
  1213  000890  EC6A  F009         	call	_Display_WriteByte
  1214                           
  1215                           ;src/main.c: 199:         Display_WriteByte(((Temp_byte1 % 10)) + 48);
  1216  000894  C0EF  F019         	movff	main@Temp_byte1,___awmod@dividend
  1217  000898  6A1A               	clrf	(___awmod@dividend+1)^0,c
  1218  00089A  0E00               	movlw	0
  1219  00089C  6E1C               	movwf	(___awmod@divisor+1)^0,c
  1220  00089E  0E0A               	movlw	10
  1221  0008A0  6E1B               	movwf	___awmod@divisor^0,c
  1222  0008A2  ECD8  F006         	call	___awmod	;wreg free
  1223  0008A6  5019               	movf	?___awmod^0,w,c
  1224  0008A8  0F30               	addlw	48
  1225  0008AA  EC6A  F009         	call	_Display_WriteByte
  1226                           
  1227                           ;src/main.c: 200:         Display_WriteByte(0x2e);
  1228  0008AE  0E2E               	movlw	46
  1229  0008B0  EC6A  F009         	call	_Display_WriteByte
  1230                           
  1231                           ;src/main.c: 201:         Display_WriteByte((Temp_byte2 / 10) + 48);
  1232  0008B4  C0F0  F019         	movff	main@Temp_byte2,___awdiv@dividend
  1233  0008B8  6A1A               	clrf	(___awdiv@dividend+1)^0,c
  1234  0008BA  0E00               	movlw	0
  1235  0008BC  6E1C               	movwf	(___awdiv@divisor+1)^0,c
  1236  0008BE  0E0A               	movlw	10
  1237  0008C0  6E1B               	movwf	___awdiv@divisor^0,c
  1238  0008C2  EC76  F006         	call	___awdiv	;wreg free
  1239  0008C6  5019               	movf	?___awdiv^0,w,c
  1240  0008C8  0F30               	addlw	48
  1241  0008CA  EC6A  F009         	call	_Display_WriteByte
  1242                           
  1243                           ;src/main.c: 202:         Display_WriteByte(((Temp_byte2 % 10)) + 48);
  1244  0008CE  C0F0  F019         	movff	main@Temp_byte2,___awmod@dividend
  1245  0008D2  6A1A               	clrf	(___awmod@dividend+1)^0,c
  1246  0008D4  0E00               	movlw	0
  1247  0008D6  6E1C               	movwf	(___awmod@divisor+1)^0,c
  1248  0008D8  0E0A               	movlw	10
  1249  0008DA  6E1B               	movwf	___awmod@divisor^0,c
  1250  0008DC  ECD8  F006         	call	___awmod	;wreg free
  1251  0008E0  5019               	movf	?___awmod^0,w,c
  1252  0008E2  0F30               	addlw	48
  1253  0008E4  EC6A  F009         	call	_Display_WriteByte
  1254                           
  1255                           ;src/main.c: 204:         Display_WriteByte(0x2e);
  1256  0008E8  0E2E               	movlw	46
  1257  0008EA  EC6A  F009         	call	_Display_WriteByte
  1258                           
  1259                           ;src/main.c: 205:         Display_WriteByte(s + 48);
  1260  0008EE  0100               	movlb	0	; () banked
  1261  0008F0  51EA               	movf	main@s& (0+255),w,b
  1262  0008F2  0F30               	addlw	48
  1263  0008F4  EC6A  F009         	call	_Display_WriteByte
  1264  0008F8                     
  1265                           ;src/main.c: 206:         _delay((unsigned long)((4000)*(12000000UL/4000.0)));
  1266  0008F8  0E3D               	movlw	61
  1267  0008FA  0100               	movlb	0	; () banked
  1268  0008FC  6FE9               	movwf	(??_main+1)& (0+255),b
  1269  0008FE  0EE1               	movlw	225
  1270  000900  6FE8               	movwf	??_main& (0+255),b
  1271  000902  0E3F               	movlw	63
  1272  000904                     u2207:
  1273  000904  2EE8               	decfsz	wreg,f,c
  1274  000906  D7FE               	bra	u2207
  1275  000908  2FE8               	decfsz	??_main& (0+255),f,b
  1276  00090A  D7FC               	bra	u2207
  1277  00090C  2FE9               	decfsz	(??_main+1)& (0+255),f,b
  1278  00090E  D7FA               	bra	u2207
  1279  000910  D000               	nop2	
  1280  000912                     
  1281                           ;src/main.c: 209:         if( s < 9)
  1282  000912  0E09               	movlw	9
  1283  000914  0100               	movlb	0	; () banked
  1284  000916  61EA               	cpfslt	main@s& (0+255),b
  1285  000918  EF90  F004         	goto	u2031
  1286  00091C  EF92  F004         	goto	u2030
  1287  000920                     u2031:
  1288  000920  EF95  F004         	goto	l3528
  1289  000924                     u2030:
  1290  000924                     
  1291                           ; BSR set to: 0
  1292                           ;src/main.c: 210:         {;src/main.c: 211:             s++;
  1293  000924  2BEA               	incf	main@s& (0+255),f,b
  1294                           
  1295                           ;src/main.c: 212:         }else
  1296  000926  EF74  F003         	goto	l3476
  1297  00092A                     l3528:
  1298                           
  1299                           ; BSR set to: 0
  1300                           ;src/main.c: 213:         {;src/main.c: 214:             s = 0;
  1301  00092A  0E00               	movlw	0
  1302  00092C  6FEA               	movwf	main@s& (0+255),b
  1303  00092E  EF74  F003         	goto	l3476
  1304  000932  EF07  F000         	goto	start
  1305  000936                     __end_of_main:
  1306                           	callstack 0
  1307                           
  1308 ;; *************** function _read_data *****************
  1309 ;; Defined at:
  1310 ;;		line 63 in file "src/app/dht11/dht11.c"
  1311 ;; Parameters:    Size  Location     Type
  1312 ;;		None
  1313 ;; Auto vars:     Size  Location     Type
  1314 ;;  j               1   27[COMRAM] unsigned char 
  1315 ;;  i               1   26[COMRAM] unsigned char 
  1316 ;; Return value:  Size  Location     Type
  1317 ;;                  1    wreg      unsigned char 
  1318 ;; Registers used:
  1319 ;;		wreg, status,2, status,0
  1320 ;; Tracked objects:
  1321 ;;		On entry : 0/0
  1322 ;;		On exit  : 0/0
  1323 ;;		Unchanged: 0/0
  1324 ;; Data sizes:     COMRAM   BANK0   BANK1   BANK2   BANK3   BANK4   BANK5
  1325 ;;      Params:         0       0       0       0       0       0       0
  1326 ;;      Locals:         2       0       0       0       0       0       0
  1327 ;;      Temps:          2       0       0       0       0       0       0
  1328 ;;      Totals:         4       0       0       0       0       0       0
  1329 ;;Total ram usage:        4 bytes
  1330 ;; Hardware stack levels used: 1
  1331 ;; Hardware stack levels required when called: 3
  1332 ;; This function calls:
  1333 ;;		Nothing
  1334 ;; This function is called by:
  1335 ;;		_main
  1336 ;; This function uses a non-reentrant model
  1337 ;;
  1338                           
  1339                           	psect	text1
  1340  000E60                     __ptext1:
  1341                           	callstack 0
  1342  000E60                     _read_data:
  1343                           	callstack 27
  1344  000E60                     
  1345                           ;src/app/dht11/dht11.c: 65:  uint8_t i,j;;src/app/dht11/dht11.c: 66:  for (j=0;j<8;j++)
  1346  000E60  0E00               	movlw	0
  1347  000E62  6E1C               	movwf	read_data@j^0,c
  1348  000E64                     l3306:
  1349  000E64  CF83 F019          	movff	3971,??_read_data	;volatile
  1350  000E68  90D8               	bcf	status,0,c
  1351  000E6A  3219               	rrcf	??_read_data^0,f,c
  1352  000E6C  A019               	btfss	??_read_data^0,0,c
  1353  000E6E  EF3B  F007         	goto	u1781
  1354  000E72  EF3D  F007         	goto	u1780
  1355  000E76                     u1781:
  1356  000E76  EF32  F007         	goto	l3306
  1357  000E7A                     u1780:
  1358  000E7A                     
  1359                           ;src/app/dht11/dht11.c: 69:   _delay((unsigned long)((40)*(12000000UL/4000000.0)));
  1360  000E7A  0E28               	movlw	40
  1361  000E7C                     u2217:
  1362  000E7C  2EE8               	decfsz	wreg,f,c
  1363  000E7E  D7FE               	bra	u2217
  1364  000E80                     
  1365                           ;src/app/dht11/dht11.c: 70:   if (((PORTD >> 1)& 0b00000001) == 0)
  1366  000E80  CF83 F019          	movff	3971,??_read_data	;volatile
  1367  000E84  90D8               	bcf	status,0,c
  1368  000E86  3219               	rrcf	??_read_data^0,f,c
  1369  000E88  B019               	btfsc	??_read_data^0,0,c
  1370  000E8A  EF49  F007         	goto	u1791
  1371  000E8E  EF4B  F007         	goto	u1790
  1372  000E92                     u1791:
  1373  000E92  EF5D  F007         	goto	l3314
  1374  000E96                     u1790:
  1375  000E96                     
  1376                           ;src/app/dht11/dht11.c: 71:   {;src/app/dht11/dht11.c: 72:    i&= ~(1<<(7-j));
  1377  000E96  501C               	movf	read_data@j^0,w,c
  1378  000E98  0807               	sublw	7
  1379  000E9A  6E19               	movwf	??_read_data^0,c
  1380  000E9C  0E01               	movlw	1
  1381  000E9E  6E1A               	movwf	(??_read_data+1)^0,c
  1382  000EA0  2A19               	incf	??_read_data^0,f,c
  1383  000EA2  EF55  F007         	goto	u1804
  1384  000EA6                     u1805:
  1385  000EA6  90D8               	bcf	status,0,c
  1386  000EA8  361A               	rlcf	(??_read_data+1)^0,f,c
  1387  000EAA                     u1804:
  1388  000EAA  2E19               	decfsz	??_read_data^0,f,c
  1389  000EAC  EF53  F007         	goto	u1805
  1390  000EB0  501A               	movf	(??_read_data+1)^0,w,c
  1391  000EB2  0AFF               	xorlw	255
  1392  000EB4  161B               	andwf	read_data@i^0,f,c
  1393                           
  1394                           ;src/app/dht11/dht11.c: 73:   }
  1395  000EB6  EF6C  F007         	goto	l3316
  1396  000EBA                     l3314:
  1397  000EBA  501C               	movf	read_data@j^0,w,c
  1398  000EBC  0807               	sublw	7
  1399  000EBE  6E19               	movwf	??_read_data^0,c
  1400  000EC0  0E01               	movlw	1
  1401  000EC2  6E1A               	movwf	(??_read_data+1)^0,c
  1402  000EC4  2A19               	incf	??_read_data^0,f,c
  1403  000EC6  EF67  F007         	goto	u1814
  1404  000ECA                     u1815:
  1405  000ECA  90D8               	bcf	status,0,c
  1406  000ECC  361A               	rlcf	(??_read_data+1)^0,f,c
  1407  000ECE                     u1814:
  1408  000ECE  2E19               	decfsz	??_read_data^0,f,c
  1409  000ED0  EF65  F007         	goto	u1815
  1410  000ED4  501A               	movf	(??_read_data+1)^0,w,c
  1411  000ED6  121B               	iorwf	read_data@i^0,f,c
  1412  000ED8                     l3316:
  1413  000ED8  CF83 F019          	movff	3971,??_read_data	;volatile
  1414  000EDC  90D8               	bcf	status,0,c
  1415  000EDE  3219               	rrcf	??_read_data^0,f,c
  1416  000EE0  B019               	btfsc	??_read_data^0,0,c
  1417  000EE2  EF75  F007         	goto	u1821
  1418  000EE6  EF77  F007         	goto	u1820
  1419  000EEA                     u1821:
  1420  000EEA  EF6C  F007         	goto	l3316
  1421  000EEE                     u1820:
  1422  000EEE                     
  1423                           ;src/app/dht11/dht11.c: 76:  }
  1424  000EEE  2A1C               	incf	read_data@j^0,f,c
  1425  000EF0  0E07               	movlw	7
  1426  000EF2  641C               	cpfsgt	read_data@j^0,c
  1427  000EF4  EF7E  F007         	goto	u1831
  1428  000EF8  EF80  F007         	goto	u1830
  1429  000EFC                     u1831:
  1430  000EFC  EF32  F007         	goto	l3306
  1431  000F00                     u1830:
  1432  000F00                     
  1433                           ;src/app/dht11/dht11.c: 77:  return i;
  1434  000F00  501B               	movf	read_data@i^0,w,c
  1435  000F02  0012               	return		;funcret
  1436  000F04                     __end_of_read_data:
  1437                           	callstack 0
  1438                           
  1439 ;; *************** function ___lwmod *****************
  1440 ;; Defined at:
  1441 ;;		line 7 in file "C:\Program Files\Microchip\xc8\v2.32\pic\sources\c99\common\lwmod.c"
  1442 ;; Parameters:    Size  Location     Type
  1443 ;;  dividend        2   24[COMRAM] unsigned int 
  1444 ;;  divisor         2   26[COMRAM] unsigned int 
  1445 ;; Auto vars:     Size  Location     Type
  1446 ;;  counter         1   28[COMRAM] unsigned char 
  1447 ;; Return value:  Size  Location     Type
  1448 ;;                  2   24[COMRAM] unsigned int 
  1449 ;; Registers used:
  1450 ;;		wreg, status,2, status,0
  1451 ;; Tracked objects:
  1452 ;;		On entry : 0/0
  1453 ;;		On exit  : 0/0
  1454 ;;		Unchanged: 0/0
  1455 ;; Data sizes:     COMRAM   BANK0   BANK1   BANK2   BANK3   BANK4   BANK5
  1456 ;;      Params:         4       0       0       0       0       0       0
  1457 ;;      Locals:         1       0       0       0       0       0       0
  1458 ;;      Temps:          0       0       0       0       0       0       0
  1459 ;;      Totals:         5       0       0       0       0       0       0
  1460 ;;Total ram usage:        5 bytes
  1461 ;; Hardware stack levels used: 1
  1462 ;; Hardware stack levels required when called: 3
  1463 ;; This function calls:
  1464 ;;		Nothing
  1465 ;; This function is called by:
  1466 ;;		_main
  1467 ;; This function uses a non-reentrant model
  1468 ;;
  1469                           
  1470                           	psect	text2
  1471  001270                     __ptext2:
  1472                           	callstack 0
  1473  001270                     ___lwmod:
  1474                           	callstack 27
  1475  001270  501B               	movf	___lwmod@divisor^0,w,c
  1476  001272  101C               	iorwf	(___lwmod@divisor+1)^0,w,c
  1477  001274  B4D8               	btfsc	status,2,c
  1478  001276  EF3F  F009         	goto	u1991
  1479  00127A  EF41  F009         	goto	u1990
  1480  00127E                     u1991:
  1481  00127E  EF65  F009         	goto	l1130
  1482  001282                     u1990:
  1483  001282  0E01               	movlw	1
  1484  001284  6E1D               	movwf	___lwmod@counter^0,c
  1485  001286  EF49  F009         	goto	l3434
  1486  00128A                     l3432:
  1487  00128A  90D8               	bcf	status,0,c
  1488  00128C  361B               	rlcf	___lwmod@divisor^0,f,c
  1489  00128E  361C               	rlcf	(___lwmod@divisor+1)^0,f,c
  1490  001290  2A1D               	incf	___lwmod@counter^0,f,c
  1491  001292                     l3434:
  1492  001292  AE1C               	btfss	(___lwmod@divisor+1)^0,7,c
  1493  001294  EF4E  F009         	goto	u2001
  1494  001298  EF50  F009         	goto	u2000
  1495  00129C                     u2001:
  1496  00129C  EF45  F009         	goto	l3432
  1497  0012A0                     u2000:
  1498  0012A0                     l3436:
  1499  0012A0  501B               	movf	___lwmod@divisor^0,w,c
  1500  0012A2  5C19               	subwf	___lwmod@dividend^0,w,c
  1501  0012A4  501C               	movf	(___lwmod@divisor+1)^0,w,c
  1502  0012A6  581A               	subwfb	(___lwmod@dividend+1)^0,w,c
  1503  0012A8  A0D8               	btfss	status,0,c
  1504  0012AA  EF59  F009         	goto	u2011
  1505  0012AE  EF5B  F009         	goto	u2010
  1506  0012B2                     u2011:
  1507  0012B2  EF5F  F009         	goto	l3440
  1508  0012B6                     u2010:
  1509  0012B6  501B               	movf	___lwmod@divisor^0,w,c
  1510  0012B8  5E19               	subwf	___lwmod@dividend^0,f,c
  1511  0012BA  501C               	movf	(___lwmod@divisor+1)^0,w,c
  1512  0012BC  5A1A               	subwfb	(___lwmod@dividend+1)^0,f,c
  1513  0012BE                     l3440:
  1514  0012BE  90D8               	bcf	status,0,c
  1515  0012C0  321C               	rrcf	(___lwmod@divisor+1)^0,f,c
  1516  0012C2  321B               	rrcf	___lwmod@divisor^0,f,c
  1517  0012C4  2E1D               	decfsz	___lwmod@counter^0,f,c
  1518  0012C6  EF50  F009         	goto	l3436
  1519  0012CA                     l1130:
  1520  0012CA  C019  F019         	movff	___lwmod@dividend,?___lwmod
  1521  0012CE  C01A  F01A         	movff	___lwmod@dividend+1,?___lwmod+1
  1522  0012D2  0012               	return		;funcret
  1523  0012D4                     __end_of___lwmod:
  1524                           	callstack 0
  1525                           
  1526 ;; *************** function ___lwdiv *****************
  1527 ;; Defined at:
  1528 ;;		line 7 in file "C:\Program Files\Microchip\xc8\v2.32\pic\sources\c99\common\lwdiv.c"
  1529 ;; Parameters:    Size  Location     Type
  1530 ;;  dividend        2   24[COMRAM] unsigned int 
  1531 ;;  divisor         2   26[COMRAM] unsigned int 
  1532 ;; Auto vars:     Size  Location     Type
  1533 ;;  quotient        2   29[COMRAM] unsigned int 
  1534 ;;  counter         1   28[COMRAM] unsigned char 
  1535 ;; Return value:  Size  Location     Type
  1536 ;;                  2   24[COMRAM] unsigned int 
  1537 ;; Registers used:
  1538 ;;		wreg, status,2, status,0
  1539 ;; Tracked objects:
  1540 ;;		On entry : 0/0
  1541 ;;		On exit  : 0/0
  1542 ;;		Unchanged: 0/0
  1543 ;; Data sizes:     COMRAM   BANK0   BANK1   BANK2   BANK3   BANK4   BANK5
  1544 ;;      Params:         4       0       0       0       0       0       0
  1545 ;;      Locals:         3       0       0       0       0       0       0
  1546 ;;      Temps:          0       0       0       0       0       0       0
  1547 ;;      Totals:         7       0       0       0       0       0       0
  1548 ;;Total ram usage:        7 bytes
  1549 ;; Hardware stack levels used: 1
  1550 ;; Hardware stack levels required when called: 3
  1551 ;; This function calls:
  1552 ;;		Nothing
  1553 ;; This function is called by:
  1554 ;;		_main
  1555 ;; This function uses a non-reentrant model
  1556 ;;
  1557                           
  1558                           	psect	text3
  1559  001196                     __ptext3:
  1560                           	callstack 0
  1561  001196                     ___lwdiv:
  1562                           	callstack 27
  1563  001196  0E00               	movlw	0
  1564  001198  6E1F               	movwf	(___lwdiv@quotient+1)^0,c
  1565  00119A  0E00               	movlw	0
  1566  00119C  6E1E               	movwf	___lwdiv@quotient^0,c
  1567  00119E  501B               	movf	___lwdiv@divisor^0,w,c
  1568  0011A0  101C               	iorwf	(___lwdiv@divisor+1)^0,w,c
  1569  0011A2  B4D8               	btfsc	status,2,c
  1570  0011A4  EFD6  F008         	goto	u1961
  1571  0011A8  EFD8  F008         	goto	u1960
  1572  0011AC                     u1961:
  1573  0011AC  EF00  F009         	goto	l1120
  1574  0011B0                     u1960:
  1575  0011B0  0E01               	movlw	1
  1576  0011B2  6E1D               	movwf	___lwdiv@counter^0,c
  1577  0011B4  EFE0  F008         	goto	l3414
  1578  0011B8                     l3412:
  1579  0011B8  90D8               	bcf	status,0,c
  1580  0011BA  361B               	rlcf	___lwdiv@divisor^0,f,c
  1581  0011BC  361C               	rlcf	(___lwdiv@divisor+1)^0,f,c
  1582  0011BE  2A1D               	incf	___lwdiv@counter^0,f,c
  1583  0011C0                     l3414:
  1584  0011C0  AE1C               	btfss	(___lwdiv@divisor+1)^0,7,c
  1585  0011C2  EFE5  F008         	goto	u1971
  1586  0011C6  EFE7  F008         	goto	u1970
  1587  0011CA                     u1971:
  1588  0011CA  EFDC  F008         	goto	l3412
  1589  0011CE                     u1970:
  1590  0011CE                     l3416:
  1591  0011CE  90D8               	bcf	status,0,c
  1592  0011D0  361E               	rlcf	___lwdiv@quotient^0,f,c
  1593  0011D2  361F               	rlcf	(___lwdiv@quotient+1)^0,f,c
  1594  0011D4  501B               	movf	___lwdiv@divisor^0,w,c
  1595  0011D6  5C19               	subwf	___lwdiv@dividend^0,w,c
  1596  0011D8  501C               	movf	(___lwdiv@divisor+1)^0,w,c
  1597  0011DA  581A               	subwfb	(___lwdiv@dividend+1)^0,w,c
  1598  0011DC  A0D8               	btfss	status,0,c
  1599  0011DE  EFF3  F008         	goto	u1981
  1600  0011E2  EFF5  F008         	goto	u1980
  1601  0011E6                     u1981:
  1602  0011E6  EFFA  F008         	goto	l3424
  1603  0011EA                     u1980:
  1604  0011EA  501B               	movf	___lwdiv@divisor^0,w,c
  1605  0011EC  5E19               	subwf	___lwdiv@dividend^0,f,c
  1606  0011EE  501C               	movf	(___lwdiv@divisor+1)^0,w,c
  1607  0011F0  5A1A               	subwfb	(___lwdiv@dividend+1)^0,f,c
  1608  0011F2  801E               	bsf	___lwdiv@quotient^0,0,c
  1609  0011F4                     l3424:
  1610  0011F4  90D8               	bcf	status,0,c
  1611  0011F6  321C               	rrcf	(___lwdiv@divisor+1)^0,f,c
  1612  0011F8  321B               	rrcf	___lwdiv@divisor^0,f,c
  1613  0011FA  2E1D               	decfsz	___lwdiv@counter^0,f,c
  1614  0011FC  EFE7  F008         	goto	l3416
  1615  001200                     l1120:
  1616  001200  C01E  F019         	movff	___lwdiv@quotient,?___lwdiv
  1617  001204  C01F  F01A         	movff	___lwdiv@quotient+1,?___lwdiv+1
  1618  001208  0012               	return		;funcret
  1619  00120A                     __end_of___lwdiv:
  1620                           	callstack 0
  1621                           
  1622 ;; *************** function ___awmod *****************
  1623 ;; Defined at:
  1624 ;;		line 7 in file "C:\Program Files\Microchip\xc8\v2.32\pic\sources\c99\common\awmod.c"
  1625 ;; Parameters:    Size  Location     Type
  1626 ;;  dividend        2   24[COMRAM] int 
  1627 ;;  divisor         2   26[COMRAM] int 
  1628 ;; Auto vars:     Size  Location     Type
  1629 ;;  sign            1   29[COMRAM] unsigned char 
  1630 ;;  counter         1   28[COMRAM] unsigned char 
  1631 ;; Return value:  Size  Location     Type
  1632 ;;                  2   24[COMRAM] int 
  1633 ;; Registers used:
  1634 ;;		wreg, status,2, status,0
  1635 ;; Tracked objects:
  1636 ;;		On entry : 0/0
  1637 ;;		On exit  : 0/0
  1638 ;;		Unchanged: 0/0
  1639 ;; Data sizes:     COMRAM   BANK0   BANK1   BANK2   BANK3   BANK4   BANK5
  1640 ;;      Params:         4       0       0       0       0       0       0
  1641 ;;      Locals:         2       0       0       0       0       0       0
  1642 ;;      Temps:          0       0       0       0       0       0       0
  1643 ;;      Totals:         6       0       0       0       0       0       0
  1644 ;;Total ram usage:        6 bytes
  1645 ;; Hardware stack levels used: 1
  1646 ;; Hardware stack levels required when called: 3
  1647 ;; This function calls:
  1648 ;;		Nothing
  1649 ;; This function is called by:
  1650 ;;		_main
  1651 ;;		_main_application
  1652 ;;		_Display_Update
  1653 ;; This function uses a non-reentrant model
  1654 ;;
  1655                           
  1656                           	psect	text4
  1657  000DB0                     __ptext4:
  1658                           	callstack 0
  1659  000DB0                     ___awmod:
  1660                           	callstack 27
  1661  000DB0  0E00               	movlw	0
  1662  000DB2  6E1E               	movwf	___awmod@sign^0,c
  1663  000DB4  BE1A               	btfsc	(___awmod@dividend+1)^0,7,c
  1664  000DB6  EFE1  F006         	goto	u1900
  1665  000DBA  EFDF  F006         	goto	u1901
  1666  000DBE                     u1901:
  1667  000DBE  EFE7  F006         	goto	l3378
  1668  000DC2                     u1900:
  1669  000DC2  6C19               	negf	___awmod@dividend^0,c
  1670  000DC4  1E1A               	comf	(___awmod@dividend+1)^0,f,c
  1671  000DC6  B0D8               	btfsc	status,0,c
  1672  000DC8  2A1A               	incf	(___awmod@dividend+1)^0,f,c
  1673  000DCA  0E01               	movlw	1
  1674  000DCC  6E1E               	movwf	___awmod@sign^0,c
  1675  000DCE                     l3378:
  1676  000DCE  BE1C               	btfsc	(___awmod@divisor+1)^0,7,c
  1677  000DD0  EFEE  F006         	goto	u1910
  1678  000DD4  EFEC  F006         	goto	u1911
  1679  000DD8                     u1911:
  1680  000DD8  EFF2  F006         	goto	l3382
  1681  000DDC                     u1910:
  1682  000DDC  6C1B               	negf	___awmod@divisor^0,c
  1683  000DDE  1E1C               	comf	(___awmod@divisor+1)^0,f,c
  1684  000DE0  B0D8               	btfsc	status,0,c
  1685  000DE2  2A1C               	incf	(___awmod@divisor+1)^0,f,c
  1686  000DE4                     l3382:
  1687  000DE4  501B               	movf	___awmod@divisor^0,w,c
  1688  000DE6  101C               	iorwf	(___awmod@divisor+1)^0,w,c
  1689  000DE8  B4D8               	btfsc	status,2,c
  1690  000DEA  EFF9  F006         	goto	u1921
  1691  000DEE  EFFB  F006         	goto	u1920
  1692  000DF2                     u1921:
  1693  000DF2  EF1F  F007         	goto	l3398
  1694  000DF6                     u1920:
  1695  000DF6  0E01               	movlw	1
  1696  000DF8  6E1D               	movwf	___awmod@counter^0,c
  1697  000DFA  EF03  F007         	goto	l3388
  1698  000DFE                     l3386:
  1699  000DFE  90D8               	bcf	status,0,c
  1700  000E00  361B               	rlcf	___awmod@divisor^0,f,c
  1701  000E02  361C               	rlcf	(___awmod@divisor+1)^0,f,c
  1702  000E04  2A1D               	incf	___awmod@counter^0,f,c
  1703  000E06                     l3388:
  1704  000E06  AE1C               	btfss	(___awmod@divisor+1)^0,7,c
  1705  000E08  EF08  F007         	goto	u1931
  1706  000E0C  EF0A  F007         	goto	u1930
  1707  000E10                     u1931:
  1708  000E10  EFFF  F006         	goto	l3386
  1709  000E14                     u1930:
  1710  000E14                     l3390:
  1711  000E14  501B               	movf	___awmod@divisor^0,w,c
  1712  000E16  5C19               	subwf	___awmod@dividend^0,w,c
  1713  000E18  501C               	movf	(___awmod@divisor+1)^0,w,c
  1714  000E1A  581A               	subwfb	(___awmod@dividend+1)^0,w,c
  1715  000E1C  A0D8               	btfss	status,0,c
  1716  000E1E  EF13  F007         	goto	u1941
  1717  000E22  EF15  F007         	goto	u1940
  1718  000E26                     u1941:
  1719  000E26  EF19  F007         	goto	l3394
  1720  000E2A                     u1940:
  1721  000E2A  501B               	movf	___awmod@divisor^0,w,c
  1722  000E2C  5E19               	subwf	___awmod@dividend^0,f,c
  1723  000E2E  501C               	movf	(___awmod@divisor+1)^0,w,c
  1724  000E30  5A1A               	subwfb	(___awmod@dividend+1)^0,f,c
  1725  000E32                     l3394:
  1726  000E32  90D8               	bcf	status,0,c
  1727  000E34  321C               	rrcf	(___awmod@divisor+1)^0,f,c
  1728  000E36  321B               	rrcf	___awmod@divisor^0,f,c
  1729  000E38  2E1D               	decfsz	___awmod@counter^0,f,c
  1730  000E3A  EF0A  F007         	goto	l3390
  1731  000E3E                     l3398:
  1732  000E3E  501E               	movf	___awmod@sign^0,w,c
  1733  000E40  B4D8               	btfsc	status,2,c
  1734  000E42  EF25  F007         	goto	u1951
  1735  000E46  EF27  F007         	goto	u1950
  1736  000E4A                     u1951:
  1737  000E4A  EF2B  F007         	goto	l3402
  1738  000E4E                     u1950:
  1739  000E4E  6C19               	negf	___awmod@dividend^0,c
  1740  000E50  1E1A               	comf	(___awmod@dividend+1)^0,f,c
  1741  000E52  B0D8               	btfsc	status,0,c
  1742  000E54  2A1A               	incf	(___awmod@dividend+1)^0,f,c
  1743  000E56                     l3402:
  1744  000E56  C019  F019         	movff	___awmod@dividend,?___awmod
  1745  000E5A  C01A  F01A         	movff	___awmod@dividend+1,?___awmod+1
  1746  000E5E  0012               	return		;funcret
  1747  000E60                     __end_of___awmod:
  1748                           	callstack 0
  1749                           
  1750 ;; *************** function ___awdiv *****************
  1751 ;; Defined at:
  1752 ;;		line 7 in file "C:\Program Files\Microchip\xc8\v2.32\pic\sources\c99\common\awdiv.c"
  1753 ;; Parameters:    Size  Location     Type
  1754 ;;  dividend        2   24[COMRAM] int 
  1755 ;;  divisor         2   26[COMRAM] int 
  1756 ;; Auto vars:     Size  Location     Type
  1757 ;;  quotient        2   30[COMRAM] int 
  1758 ;;  sign            1   29[COMRAM] unsigned char 
  1759 ;;  counter         1   28[COMRAM] unsigned char 
  1760 ;; Return value:  Size  Location     Type
  1761 ;;                  2   24[COMRAM] int 
  1762 ;; Registers used:
  1763 ;;		wreg, status,2, status,0
  1764 ;; Tracked objects:
  1765 ;;		On entry : 0/0
  1766 ;;		On exit  : 0/0
  1767 ;;		Unchanged: 0/0
  1768 ;; Data sizes:     COMRAM   BANK0   BANK1   BANK2   BANK3   BANK4   BANK5
  1769 ;;      Params:         4       0       0       0       0       0       0
  1770 ;;      Locals:         4       0       0       0       0       0       0
  1771 ;;      Temps:          0       0       0       0       0       0       0
  1772 ;;      Totals:         8       0       0       0       0       0       0
  1773 ;;Total ram usage:        8 bytes
  1774 ;; Hardware stack levels used: 1
  1775 ;; Hardware stack levels required when called: 3
  1776 ;; This function calls:
  1777 ;;		Nothing
  1778 ;; This function is called by:
  1779 ;;		_main
  1780 ;;		_main_application
  1781 ;;		_Display_Update
  1782 ;; This function uses a non-reentrant model
  1783 ;;
  1784                           
  1785                           	psect	text5
  1786  000CEC                     __ptext5:
  1787                           	callstack 0
  1788  000CEC                     ___awdiv:
  1789                           	callstack 27
  1790  000CEC  0E00               	movlw	0
  1791  000CEE  6E1E               	movwf	___awdiv@sign^0,c
  1792  000CF0  BE1C               	btfsc	(___awdiv@divisor+1)^0,7,c
  1793  000CF2  EF7F  F006         	goto	u1840
  1794  000CF6  EF7D  F006         	goto	u1841
  1795  000CFA                     u1841:
  1796  000CFA  EF85  F006         	goto	l3334
  1797  000CFE                     u1840:
  1798  000CFE  6C1B               	negf	___awdiv@divisor^0,c
  1799  000D00  1E1C               	comf	(___awdiv@divisor+1)^0,f,c
  1800  000D02  B0D8               	btfsc	status,0,c
  1801  000D04  2A1C               	incf	(___awdiv@divisor+1)^0,f,c
  1802  000D06  0E01               	movlw	1
  1803  000D08  6E1E               	movwf	___awdiv@sign^0,c
  1804  000D0A                     l3334:
  1805  000D0A  BE1A               	btfsc	(___awdiv@dividend+1)^0,7,c
  1806  000D0C  EF8C  F006         	goto	u1850
  1807  000D10  EF8A  F006         	goto	u1851
  1808  000D14                     u1851:
  1809  000D14  EF92  F006         	goto	l3340
  1810  000D18                     u1850:
  1811  000D18  6C19               	negf	___awdiv@dividend^0,c
  1812  000D1A  1E1A               	comf	(___awdiv@dividend+1)^0,f,c
  1813  000D1C  B0D8               	btfsc	status,0,c
  1814  000D1E  2A1A               	incf	(___awdiv@dividend+1)^0,f,c
  1815  000D20  0E01               	movlw	1
  1816  000D22  1A1E               	xorwf	___awdiv@sign^0,f,c
  1817  000D24                     l3340:
  1818  000D24  0E00               	movlw	0
  1819  000D26  6E20               	movwf	(___awdiv@quotient+1)^0,c
  1820  000D28  0E00               	movlw	0
  1821  000D2A  6E1F               	movwf	___awdiv@quotient^0,c
  1822  000D2C  501B               	movf	___awdiv@divisor^0,w,c
  1823  000D2E  101C               	iorwf	(___awdiv@divisor+1)^0,w,c
  1824  000D30  B4D8               	btfsc	status,2,c
  1825  000D32  EF9D  F006         	goto	u1861
  1826  000D36  EF9F  F006         	goto	u1860
  1827  000D3A                     u1861:
  1828  000D3A  EFC7  F006         	goto	l3362
  1829  000D3E                     u1860:
  1830  000D3E  0E01               	movlw	1
  1831  000D40  6E1D               	movwf	___awdiv@counter^0,c
  1832  000D42  EFA7  F006         	goto	l3348
  1833  000D46                     l3346:
  1834  000D46  90D8               	bcf	status,0,c
  1835  000D48  361B               	rlcf	___awdiv@divisor^0,f,c
  1836  000D4A  361C               	rlcf	(___awdiv@divisor+1)^0,f,c
  1837  000D4C  2A1D               	incf	___awdiv@counter^0,f,c
  1838  000D4E                     l3348:
  1839  000D4E  AE1C               	btfss	(___awdiv@divisor+1)^0,7,c
  1840  000D50  EFAC  F006         	goto	u1871
  1841  000D54  EFAE  F006         	goto	u1870
  1842  000D58                     u1871:
  1843  000D58  EFA3  F006         	goto	l3346
  1844  000D5C                     u1870:
  1845  000D5C                     l3350:
  1846  000D5C  90D8               	bcf	status,0,c
  1847  000D5E  361F               	rlcf	___awdiv@quotient^0,f,c
  1848  000D60  3620               	rlcf	(___awdiv@quotient+1)^0,f,c
  1849  000D62  501B               	movf	___awdiv@divisor^0,w,c
  1850  000D64  5C19               	subwf	___awdiv@dividend^0,w,c
  1851  000D66  501C               	movf	(___awdiv@divisor+1)^0,w,c
  1852  000D68  581A               	subwfb	(___awdiv@dividend+1)^0,w,c
  1853  000D6A  A0D8               	btfss	status,0,c
  1854  000D6C  EFBA  F006         	goto	u1881
  1855  000D70  EFBC  F006         	goto	u1880
  1856  000D74                     u1881:
  1857  000D74  EFC1  F006         	goto	l3358
  1858  000D78                     u1880:
  1859  000D78  501B               	movf	___awdiv@divisor^0,w,c
  1860  000D7A  5E19               	subwf	___awdiv@dividend^0,f,c
  1861  000D7C  501C               	movf	(___awdiv@divisor+1)^0,w,c
  1862  000D7E  5A1A               	subwfb	(___awdiv@dividend+1)^0,f,c
  1863  000D80  801F               	bsf	___awdiv@quotient^0,0,c
  1864  000D82                     l3358:
  1865  000D82  90D8               	bcf	status,0,c
  1866  000D84  321C               	rrcf	(___awdiv@divisor+1)^0,f,c
  1867  000D86  321B               	rrcf	___awdiv@divisor^0,f,c
  1868  000D88  2E1D               	decfsz	___awdiv@counter^0,f,c
  1869  000D8A  EFAE  F006         	goto	l3350
  1870  000D8E                     l3362:
  1871  000D8E  501E               	movf	___awdiv@sign^0,w,c
  1872  000D90  B4D8               	btfsc	status,2,c
  1873  000D92  EFCD  F006         	goto	u1891
  1874  000D96  EFCF  F006         	goto	u1890
  1875  000D9A                     u1891:
  1876  000D9A  EFD3  F006         	goto	l3366
  1877  000D9E                     u1890:
  1878  000D9E  6C1F               	negf	___awdiv@quotient^0,c
  1879  000DA0  1E20               	comf	(___awdiv@quotient+1)^0,f,c
  1880  000DA2  B0D8               	btfsc	status,0,c
  1881  000DA4  2A20               	incf	(___awdiv@quotient+1)^0,f,c
  1882  000DA6                     l3366:
  1883  000DA6  C01F  F019         	movff	___awdiv@quotient,?___awdiv
  1884  000DAA  C020  F01A         	movff	___awdiv@quotient+1,?___awdiv+1
  1885  000DAE  0012               	return		;funcret
  1886  000DB0                     __end_of___awdiv:
  1887                           	callstack 0
  1888                           
  1889 ;; *************** function _Serial_1_Config *****************
  1890 ;; Defined at:
  1891 ;;		line 6 in file "src/pic18f4520/serial/serial.c"
  1892 ;; Parameters:    Size  Location     Type
  1893 ;;  serialConfig    2    0[BANK0 ] PTR struct .
  1894 ;;		 -> serialConfig(7), 
  1895 ;; Auto vars:     Size  Location     Type
  1896 ;;  error_min       1   12[BANK0 ] unsigned char 
  1897 ;;  error_8HIGH     1   11[BANK0 ] unsigned char 
  1898 ;;  brg16HIGH       1   10[BANK0 ] unsigned char 
  1899 ;;  brg8HIGH        1    9[BANK0 ] unsigned char 
  1900 ;;  brg8LOW         1    8[BANK0 ] unsigned char 
  1901 ;;  error_16HIGH    1    7[BANK0 ] unsigned char 
  1902 ;;  error_8LOW      1    6[BANK0 ] unsigned char 
  1903 ;; Return value:  Size  Location     Type
  1904 ;;                  1    wreg      void 
  1905 ;; Registers used:
  1906 ;;		wreg, fsr2l, fsr2h, status,2, status,0, prodl, prodh, cstack
  1907 ;; Tracked objects:
  1908 ;;		On entry : 0/0
  1909 ;;		On exit  : 0/0
  1910 ;;		Unchanged: 0/0
  1911 ;; Data sizes:     COMRAM   BANK0   BANK1   BANK2   BANK3   BANK4   BANK5
  1912 ;;      Params:         0       2       0       0       0       0       0
  1913 ;;      Locals:         0       7       0       0       0       0       0
  1914 ;;      Temps:          0       4       0       0       0       0       0
  1915 ;;      Totals:         0      13       0       0       0       0       0
  1916 ;;Total ram usage:       13 bytes
  1917 ;; Hardware stack levels used: 1
  1918 ;; Hardware stack levels required when called: 4
  1919 ;; This function calls:
  1920 ;;		___lldiv
  1921 ;; This function is called by:
  1922 ;;		_main
  1923 ;; This function uses a non-reentrant model
  1924 ;;
  1925                           
  1926                           	psect	text6
  1927  000936                     __ptext6:
  1928                           	callstack 0
  1929  000936                     _Serial_1_Config:
  1930                           	callstack 26
  1931  000936                     
  1932                           ;src/pic18f4520/serial/serial.c: 29:     uint8_t brg8LOW;;src/pic18f4520/serial/serial.c
      +                          : 30:     uint8_t brg8HIGH;;src/pic18f4520/serial/serial.c: 31:     uint8_t brg16HIGH;;s
      +                          rc/pic18f4520/serial/serial.c: 34:     uint8_t error_8LOW;;src/pic18f4520/serial/serial.
      +                          c: 35:     uint8_t error_8HIGH;;src/pic18f4520/serial/serial.c: 36:     uint8_t error_16
      +                          HIGH;;src/pic18f4520/serial/serial.c: 38:     uint8_t error_min;;src/pic18f4520/serial/s
      +                          erial.c: 41:     brg8LOW = (12000000UL/(serialConfig->serial_desired_baud * 64));
  1933  000936  0E00               	movlw	0
  1934  000938  6E19               	movwf	___lldiv@dividend^0,c
  1935  00093A  0E1B               	movlw	27
  1936  00093C  6E1A               	movwf	(___lldiv@dividend+1)^0,c
  1937  00093E  0EB7               	movlw	183
  1938  000940  6E1B               	movwf	(___lldiv@dividend+2)^0,c
  1939  000942  0E00               	movlw	0
  1940  000944  6E1C               	movwf	(___lldiv@dividend+3)^0,c
  1941  000946  0100               	movlb	0	; () banked
  1942  000948  EE20 F003          	lfsr	2,3
  1943  00094C  51DB               	movf	Serial_1_Config@serialConfig& (0+255),w,b
  1944  00094E  26D9               	addwf	fsr2l,f,c
  1945  000950  51DC               	movf	(Serial_1_Config@serialConfig+1)& (0+255),w,b
  1946  000952  22DA               	addwfc	fsr2h,f,c
  1947  000954  CFDE F0DD          	movff	postinc2,??_Serial_1_Config
  1948  000958  CFDE F0DE          	movff	postinc2,??_Serial_1_Config+1
  1949  00095C  CFDE F0DF          	movff	postinc2,??_Serial_1_Config+2
  1950  000960  CFDE F0E0          	movff	postinc2,??_Serial_1_Config+3
  1951  000964  0E06               	movlw	6
  1952  000966                     u1685:
  1953  000966  90D8               	bcf	status,0,c
  1954  000968  37DD               	rlcf	??_Serial_1_Config& (0+255),f,b
  1955  00096A  37DE               	rlcf	(??_Serial_1_Config+1)& (0+255),f,b
  1956  00096C  37DF               	rlcf	(??_Serial_1_Config+2)& (0+255),f,b
  1957  00096E  37E0               	rlcf	(??_Serial_1_Config+3)& (0+255),f,b
  1958  000970  2EE8               	decfsz	wreg,f,c
  1959  000972  EFB3  F004         	goto	u1685
  1960  000976  C0DD  F01D         	movff	??_Serial_1_Config,___lldiv@divisor
  1961  00097A  C0DE  F01E         	movff	??_Serial_1_Config+1,___lldiv@divisor+1
  1962  00097E  C0DF  F01F         	movff	??_Serial_1_Config+2,___lldiv@divisor+2
  1963  000982  C0E0  F020         	movff	??_Serial_1_Config+3,___lldiv@divisor+3
  1964  000986  EC82  F007         	call	___lldiv	;wreg free
  1965  00098A  5019               	movf	?___lldiv^0,w,c
  1966  00098C  0100               	movlb	0	; () banked
  1967  00098E  6FE3               	movwf	Serial_1_Config@brg8LOW& (0+255),b
  1968                           
  1969                           ;src/pic18f4520/serial/serial.c: 42:     brg8HIGH = (12000000UL/(serialConfig->serial_de
      +                          sired_baud * 16));
  1970  000990  0E00               	movlw	0
  1971  000992  6E19               	movwf	___lldiv@dividend^0,c
  1972  000994  0E1B               	movlw	27
  1973  000996  6E1A               	movwf	(___lldiv@dividend+1)^0,c
  1974  000998  0EB7               	movlw	183
  1975  00099A  6E1B               	movwf	(___lldiv@dividend+2)^0,c
  1976  00099C  0E00               	movlw	0
  1977  00099E  6E1C               	movwf	(___lldiv@dividend+3)^0,c
  1978  0009A0  EE20 F003          	lfsr	2,3
  1979  0009A4  51DB               	movf	Serial_1_Config@serialConfig& (0+255),w,b
  1980  0009A6  26D9               	addwf	fsr2l,f,c
  1981  0009A8  51DC               	movf	(Serial_1_Config@serialConfig+1)& (0+255),w,b
  1982  0009AA  22DA               	addwfc	fsr2h,f,c
  1983  0009AC  CFDE F0DD          	movff	postinc2,??_Serial_1_Config
  1984  0009B0  CFDE F0DE          	movff	postinc2,??_Serial_1_Config+1
  1985  0009B4  CFDE F0DF          	movff	postinc2,??_Serial_1_Config+2
  1986  0009B8  CFDE F0E0          	movff	postinc2,??_Serial_1_Config+3
  1987  0009BC  0E04               	movlw	4
  1988  0009BE                     u1695:
  1989  0009BE  90D8               	bcf	status,0,c
  1990  0009C0  37DD               	rlcf	??_Serial_1_Config& (0+255),f,b
  1991  0009C2  37DE               	rlcf	(??_Serial_1_Config+1)& (0+255),f,b
  1992  0009C4  37DF               	rlcf	(??_Serial_1_Config+2)& (0+255),f,b
  1993  0009C6  37E0               	rlcf	(??_Serial_1_Config+3)& (0+255),f,b
  1994  0009C8  2EE8               	decfsz	wreg,f,c
  1995  0009CA  EFDF  F004         	goto	u1695
  1996  0009CE  C0DD  F01D         	movff	??_Serial_1_Config,___lldiv@divisor
  1997  0009D2  C0DE  F01E         	movff	??_Serial_1_Config+1,___lldiv@divisor+1
  1998  0009D6  C0DF  F01F         	movff	??_Serial_1_Config+2,___lldiv@divisor+2
  1999  0009DA  C0E0  F020         	movff	??_Serial_1_Config+3,___lldiv@divisor+3
  2000  0009DE  EC82  F007         	call	___lldiv	;wreg free
  2001  0009E2  5019               	movf	?___lldiv^0,w,c
  2002  0009E4  0100               	movlb	0	; () banked
  2003  0009E6  6FE4               	movwf	Serial_1_Config@brg8HIGH& (0+255),b
  2004                           
  2005                           ;src/pic18f4520/serial/serial.c: 43:     brg16HIGH = (12000000UL/(serialConfig->serial_d
      +                          esired_baud * 4));
  2006  0009E8  0E00               	movlw	0
  2007  0009EA  6E19               	movwf	___lldiv@dividend^0,c
  2008  0009EC  0E1B               	movlw	27
  2009  0009EE  6E1A               	movwf	(___lldiv@dividend+1)^0,c
  2010  0009F0  0EB7               	movlw	183
  2011  0009F2  6E1B               	movwf	(___lldiv@dividend+2)^0,c
  2012  0009F4  0E00               	movlw	0
  2013  0009F6  6E1C               	movwf	(___lldiv@dividend+3)^0,c
  2014  0009F8  EE20 F003          	lfsr	2,3
  2015  0009FC  51DB               	movf	Serial_1_Config@serialConfig& (0+255),w,b
  2016  0009FE  26D9               	addwf	fsr2l,f,c
  2017  000A00  51DC               	movf	(Serial_1_Config@serialConfig+1)& (0+255),w,b
  2018  000A02  22DA               	addwfc	fsr2h,f,c
  2019  000A04  CFDE F0DD          	movff	postinc2,??_Serial_1_Config
  2020  000A08  CFDE F0DE          	movff	postinc2,??_Serial_1_Config+1
  2021  000A0C  CFDE F0DF          	movff	postinc2,??_Serial_1_Config+2
  2022  000A10  CFDE F0E0          	movff	postinc2,??_Serial_1_Config+3
  2023  000A14  0E02               	movlw	2
  2024  000A16                     u1705:
  2025  000A16  90D8               	bcf	status,0,c
  2026  000A18  37DD               	rlcf	??_Serial_1_Config& (0+255),f,b
  2027  000A1A  37DE               	rlcf	(??_Serial_1_Config+1)& (0+255),f,b
  2028  000A1C  37DF               	rlcf	(??_Serial_1_Config+2)& (0+255),f,b
  2029  000A1E  37E0               	rlcf	(??_Serial_1_Config+3)& (0+255),f,b
  2030  000A20  2EE8               	decfsz	wreg,f,c
  2031  000A22  EF0B  F005         	goto	u1705
  2032  000A26  C0DD  F01D         	movff	??_Serial_1_Config,___lldiv@divisor
  2033  000A2A  C0DE  F01E         	movff	??_Serial_1_Config+1,___lldiv@divisor+1
  2034  000A2E  C0DF  F01F         	movff	??_Serial_1_Config+2,___lldiv@divisor+2
  2035  000A32  C0E0  F020         	movff	??_Serial_1_Config+3,___lldiv@divisor+3
  2036  000A36  EC82  F007         	call	___lldiv	;wreg free
  2037  000A3A  5019               	movf	?___lldiv^0,w,c
  2038  000A3C  0100               	movlb	0	; () banked
  2039  000A3E  6FE5               	movwf	Serial_1_Config@brg16HIGH& (0+255),b
  2040  000A40                     
  2041                           ; BSR set to: 0
  2042                           ;src/pic18f4520/serial/serial.c: 46:     error_8LOW = (12000000UL/(brg8LOW * 64)) - seri
      +                          alConfig->serial_desired_baud;
  2043  000A40  EE20 F003          	lfsr	2,3
  2044  000A44  51DB               	movf	Serial_1_Config@serialConfig& (0+255),w,b
  2045  000A46  26D9               	addwf	fsr2l,f,c
  2046  000A48  51DC               	movf	(Serial_1_Config@serialConfig+1)& (0+255),w,b
  2047  000A4A  22DA               	addwfc	fsr2h,f,c
  2048  000A4C  50DF               	movf	indf2,w,c
  2049  000A4E  6FDD               	movwf	??_Serial_1_Config& (0+255),b
  2050  000A50  0E00               	movlw	0
  2051  000A52  6E19               	movwf	___lldiv@dividend^0,c
  2052  000A54  0E1B               	movlw	27
  2053  000A56  6E1A               	movwf	(___lldiv@dividend+1)^0,c
  2054  000A58  0EB7               	movlw	183
  2055  000A5A  6E1B               	movwf	(___lldiv@dividend+2)^0,c
  2056  000A5C  0E00               	movlw	0
  2057  000A5E  6E1C               	movwf	(___lldiv@dividend+3)^0,c
  2058  000A60  51E3               	movf	Serial_1_Config@brg8LOW& (0+255),w,b
  2059  000A62  0D40               	mullw	64
  2060  000A64  CFF3 F0DE          	movff	prodl,??_Serial_1_Config+1
  2061  000A68  CFF4 F0DF          	movff	prodh,??_Serial_1_Config+2
  2062  000A6C  C0DE  F01D         	movff	??_Serial_1_Config+1,___lldiv@divisor
  2063  000A70  C0DF  F01E         	movff	??_Serial_1_Config+2,___lldiv@divisor+1
  2064  000A74  0E00               	movlw	0
  2065  000A76  BE1E               	btfsc	(___lldiv@divisor+1)^0,7,c
  2066  000A78  0EFF               	movlw	-1
  2067  000A7A  6E1F               	movwf	(___lldiv@divisor+2)^0,c
  2068  000A7C  6E20               	movwf	(___lldiv@divisor+3)^0,c
  2069  000A7E  EC82  F007         	call	___lldiv	;wreg free
  2070  000A82  0100               	movlb	0	; () banked
  2071  000A84  51DD               	movf	??_Serial_1_Config& (0+255),w,b
  2072  000A86  5C19               	subwf	?___lldiv^0,w,c
  2073  000A88  6FE1               	movwf	Serial_1_Config@error_8LOW& (0+255),b
  2074  000A8A                     
  2075                           ; BSR set to: 0
  2076                           ;src/pic18f4520/serial/serial.c: 47:     error_8HIGH = (12000000UL/(brg8HIGH * 16)) - se
      +                          rialConfig->serial_desired_baud;
  2077  000A8A  EE20 F003          	lfsr	2,3
  2078  000A8E  51DB               	movf	Serial_1_Config@serialConfig& (0+255),w,b
  2079  000A90  26D9               	addwf	fsr2l,f,c
  2080  000A92  51DC               	movf	(Serial_1_Config@serialConfig+1)& (0+255),w,b
  2081  000A94  22DA               	addwfc	fsr2h,f,c
  2082  000A96  50DF               	movf	indf2,w,c
  2083  000A98  6FDD               	movwf	??_Serial_1_Config& (0+255),b
  2084  000A9A  0E00               	movlw	0
  2085  000A9C  6E19               	movwf	___lldiv@dividend^0,c
  2086  000A9E  0E1B               	movlw	27
  2087  000AA0  6E1A               	movwf	(___lldiv@dividend+1)^0,c
  2088  000AA2  0EB7               	movlw	183
  2089  000AA4  6E1B               	movwf	(___lldiv@dividend+2)^0,c
  2090  000AA6  0E00               	movlw	0
  2091  000AA8  6E1C               	movwf	(___lldiv@dividend+3)^0,c
  2092  000AAA  51E4               	movf	Serial_1_Config@brg8HIGH& (0+255),w,b
  2093  000AAC  0D10               	mullw	16
  2094  000AAE  CFF3 F0DE          	movff	prodl,??_Serial_1_Config+1
  2095  000AB2  CFF4 F0DF          	movff	prodh,??_Serial_1_Config+2
  2096  000AB6  C0DE  F01D         	movff	??_Serial_1_Config+1,___lldiv@divisor
  2097  000ABA  C0DF  F01E         	movff	??_Serial_1_Config+2,___lldiv@divisor+1
  2098  000ABE  0E00               	movlw	0
  2099  000AC0  BE1E               	btfsc	(___lldiv@divisor+1)^0,7,c
  2100  000AC2  0EFF               	movlw	-1
  2101  000AC4  6E1F               	movwf	(___lldiv@divisor+2)^0,c
  2102  000AC6  6E20               	movwf	(___lldiv@divisor+3)^0,c
  2103  000AC8  EC82  F007         	call	___lldiv	;wreg free
  2104  000ACC  0100               	movlb	0	; () banked
  2105  000ACE  51DD               	movf	??_Serial_1_Config& (0+255),w,b
  2106  000AD0  5C19               	subwf	?___lldiv^0,w,c
  2107  000AD2  6FE6               	movwf	Serial_1_Config@error_8HIGH& (0+255),b
  2108  000AD4                     
  2109                           ; BSR set to: 0
  2110                           ;src/pic18f4520/serial/serial.c: 48:     error_16HIGH = (12000000UL/(brg16HIGH * 4)) - s
      +                          erialConfig->serial_desired_baud;
  2111  000AD4  EE20 F003          	lfsr	2,3
  2112  000AD8  51DB               	movf	Serial_1_Config@serialConfig& (0+255),w,b
  2113  000ADA  26D9               	addwf	fsr2l,f,c
  2114  000ADC  51DC               	movf	(Serial_1_Config@serialConfig+1)& (0+255),w,b
  2115  000ADE  22DA               	addwfc	fsr2h,f,c
  2116  000AE0  50DF               	movf	indf2,w,c
  2117  000AE2  6FDD               	movwf	??_Serial_1_Config& (0+255),b
  2118  000AE4  0E00               	movlw	0
  2119  000AE6  6E19               	movwf	___lldiv@dividend^0,c
  2120  000AE8  0E1B               	movlw	27
  2121  000AEA  6E1A               	movwf	(___lldiv@dividend+1)^0,c
  2122  000AEC  0EB7               	movlw	183
  2123  000AEE  6E1B               	movwf	(___lldiv@dividend+2)^0,c
  2124  000AF0  0E00               	movlw	0
  2125  000AF2  6E1C               	movwf	(___lldiv@dividend+3)^0,c
  2126  000AF4  51E5               	movf	Serial_1_Config@brg16HIGH& (0+255),w,b
  2127  000AF6  0D04               	mullw	4
  2128  000AF8  CFF3 F0DE          	movff	prodl,??_Serial_1_Config+1
  2129  000AFC  CFF4 F0DF          	movff	prodh,??_Serial_1_Config+2
  2130  000B00  C0DE  F01D         	movff	??_Serial_1_Config+1,___lldiv@divisor
  2131  000B04  C0DF  F01E         	movff	??_Serial_1_Config+2,___lldiv@divisor+1
  2132  000B08  0E00               	movlw	0
  2133  000B0A  BE1E               	btfsc	(___lldiv@divisor+1)^0,7,c
  2134  000B0C  0EFF               	movlw	-1
  2135  000B0E  6E1F               	movwf	(___lldiv@divisor+2)^0,c
  2136  000B10  6E20               	movwf	(___lldiv@divisor+3)^0,c
  2137  000B12  EC82  F007         	call	___lldiv	;wreg free
  2138  000B16  0100               	movlb	0	; () banked
  2139  000B18  51DD               	movf	??_Serial_1_Config& (0+255),w,b
  2140  000B1A  5C19               	subwf	?___lldiv^0,w,c
  2141  000B1C  6FE2               	movwf	Serial_1_Config@error_16HIGH& (0+255),b
  2142  000B1E                     
  2143                           ; BSR set to: 0
  2144                           ;src/pic18f4520/serial/serial.c: 51:     error_min = error_8LOW;
  2145  000B1E  C0E1  F0E7         	movff	Serial_1_Config@error_8LOW,Serial_1_Config@error_min
  2146  000B22                     
  2147                           ; BSR set to: 0
  2148                           ;src/pic18f4520/serial/serial.c: 53:     BAUDCONbits.BRG16 = 0x00;
  2149  000B22  96B8               	bcf	184,3,c	;volatile
  2150  000B24                     
  2151                           ; BSR set to: 0
  2152                           ;src/pic18f4520/serial/serial.c: 54:     TXSTAbits.BRGH = 0x00;
  2153  000B24  94AC               	bcf	172,2,c	;volatile
  2154  000B26                     
  2155                           ; BSR set to: 0
  2156                           ;src/pic18f4520/serial/serial.c: 56:     SPBRG = (brg8LOW - 1);
  2157  000B26  05E3               	decf	Serial_1_Config@brg8LOW& (0+255),w,b
  2158  000B28  6EAF               	movwf	175,c	;volatile
  2159  000B2A                     
  2160                           ; BSR set to: 0
  2161                           ;src/pic18f4520/serial/serial.c: 58:     if(error_8HIGH < error_min)
  2162  000B2A  51E7               	movf	Serial_1_Config@error_min& (0+255),w,b
  2163  000B2C  5DE6               	subwf	Serial_1_Config@error_8HIGH& (0+255),w,b
  2164  000B2E  B0D8               	btfsc	status,0,c
  2165  000B30  EF9C  F005         	goto	u1711
  2166  000B34  EF9E  F005         	goto	u1710
  2167  000B38                     u1711:
  2168  000B38  EFA4  F005         	goto	l519
  2169  000B3C                     u1710:
  2170  000B3C                     
  2171                           ; BSR set to: 0
  2172                           ;src/pic18f4520/serial/serial.c: 59:     {;src/pic18f4520/serial/serial.c: 60:         e
      +                          rror_min = error_8HIGH;
  2173  000B3C  C0E6  F0E7         	movff	Serial_1_Config@error_8HIGH,Serial_1_Config@error_min
  2174                           
  2175                           ;src/pic18f4520/serial/serial.c: 62:         BAUDCONbits.BRG16 = 0x00;
  2176  000B40  96B8               	bcf	184,3,c	;volatile
  2177                           
  2178                           ;src/pic18f4520/serial/serial.c: 63:         TXSTAbits.BRGH = 0x01;
  2179  000B42  84AC               	bsf	172,2,c	;volatile
  2180  000B44                     
  2181                           ; BSR set to: 0
  2182                           ;src/pic18f4520/serial/serial.c: 65:         SPBRG = (brg8HIGH - 1);
  2183  000B44  05E4               	decf	Serial_1_Config@brg8HIGH& (0+255),w,b
  2184  000B46  6EAF               	movwf	175,c	;volatile
  2185  000B48                     l519:
  2186                           
  2187                           ; BSR set to: 0
  2188                           ;src/pic18f4520/serial/serial.c: 67:     if(error_16HIGH < error_min)
  2189  000B48  51E7               	movf	Serial_1_Config@error_min& (0+255),w,b
  2190  000B4A  5DE2               	subwf	Serial_1_Config@error_16HIGH& (0+255),w,b
  2191  000B4C  B0D8               	btfsc	status,0,c
  2192  000B4E  EFAB  F005         	goto	u1721
  2193  000B52  EFAD  F005         	goto	u1720
  2194  000B56                     u1721:
  2195  000B56  EFB1  F005         	goto	l3236
  2196  000B5A                     u1720:
  2197  000B5A                     
  2198                           ; BSR set to: 0
  2199                           ;src/pic18f4520/serial/serial.c: 68:     {;src/pic18f4520/serial/serial.c: 69:         B
      +                          AUDCONbits.BRG16 = 0x01;
  2200  000B5A  86B8               	bsf	184,3,c	;volatile
  2201                           
  2202                           ;src/pic18f4520/serial/serial.c: 70:         TXSTAbits.BRGH = 0x01;
  2203  000B5C  84AC               	bsf	172,2,c	;volatile
  2204  000B5E                     
  2205                           ; BSR set to: 0
  2206                           ;src/pic18f4520/serial/serial.c: 72:         SPBRG = (brg16HIGH - 1);
  2207  000B5E  05E5               	decf	Serial_1_Config@brg16HIGH& (0+255),w,b
  2208  000B60  6EAF               	movwf	175,c	;volatile
  2209  000B62                     l3236:
  2210                           
  2211                           ; BSR set to: 0
  2212                           ;src/pic18f4520/serial/serial.c: 80:     TXSTAbits.SYNC = serialConfig->serial_op_mode;
  2213  000B62  EE20 F002          	lfsr	2,2
  2214  000B66  51DB               	movf	Serial_1_Config@serialConfig& (0+255),w,b
  2215  000B68  26D9               	addwf	fsr2l,f,c
  2216  000B6A  51DC               	movf	(Serial_1_Config@serialConfig+1)& (0+255),w,b
  2217  000B6C  22DA               	addwfc	fsr2h,f,c
  2218  000B6E  50DF               	movf	indf2,w,c
  2219  000B70  6FDD               	movwf	??_Serial_1_Config& (0+255),b
  2220  000B72  3BDD               	swapf	??_Serial_1_Config& (0+255),f,b
  2221  000B74  50AC               	movf	172,w,c	;volatile
  2222  000B76  19DD               	xorwf	??_Serial_1_Config& (0+255),w,b
  2223  000B78  0BEF               	andlw	-17
  2224  000B7A  19DD               	xorwf	??_Serial_1_Config& (0+255),w,b
  2225  000B7C  6EAC               	movwf	172,c	;volatile
  2226  000B7E                     
  2227                           ; BSR set to: 0
  2228                           ;src/pic18f4520/serial/serial.c: 86:     RCSTAbits.SPEN = 0x01;
  2229  000B7E  8EAB               	bsf	171,7,c	;volatile
  2230  000B80                     
  2231                           ; BSR set to: 0
  2232                           ;src/pic18f4520/serial/serial.c: 100:     if(serialConfig->serial_data_length == SERIAL_
      +                          DATA_LENGTH_9)
  2233  000B80  EE20 F001          	lfsr	2,1
  2234  000B84  51DB               	movf	Serial_1_Config@serialConfig& (0+255),w,b
  2235  000B86  26D9               	addwf	fsr2l,f,c
  2236  000B88  51DC               	movf	(Serial_1_Config@serialConfig+1)& (0+255),w,b
  2237  000B8A  22DA               	addwfc	fsr2h,f,c
  2238  000B8C  04DE               	decf	postinc2,w,c
  2239  000B8E  A4D8               	btfss	status,2,c
  2240  000B90  EFCC  F005         	goto	u1731
  2241  000B94  EFCE  F005         	goto	u1730
  2242  000B98                     u1731:
  2243  000B98  EFD2  F005         	goto	l521
  2244  000B9C                     u1730:
  2245  000B9C                     
  2246                           ; BSR set to: 0
  2247                           ;src/pic18f4520/serial/serial.c: 101:     {;src/pic18f4520/serial/serial.c: 102:        
      +                           TXSTAbits.TX9 = 0x01;
  2248  000B9C  8CAC               	bsf	172,6,c	;volatile
  2249                           
  2250                           ;src/pic18f4520/serial/serial.c: 103:         RCSTAbits.RC9 = 0x01;
  2251  000B9E  8CAB               	bsf	171,6,c	;volatile
  2252                           
  2253                           ;src/pic18f4520/serial/serial.c: 104:     }else
  2254  000BA0  EFD4  F005         	goto	l522
  2255  000BA4                     l521:
  2256                           
  2257                           ; BSR set to: 0
  2258                           ;src/pic18f4520/serial/serial.c: 105:     {;src/pic18f4520/serial/serial.c: 106:        
      +                           TXSTAbits.TX9 = 0x00;
  2259  000BA4  9CAC               	bcf	172,6,c	;volatile
  2260                           
  2261                           ;src/pic18f4520/serial/serial.c: 107:         RCSTAbits.RC9 = 0x00;
  2262  000BA6  9CAB               	bcf	171,6,c	;volatile
  2263  000BA8                     l522:
  2264                           
  2265                           ; BSR set to: 0
  2266                           ;src/pic18f4520/serial/serial.c: 123:     TXSTAbits.TXEN = 0x01;
  2267  000BA8  8AAC               	bsf	172,5,c	;volatile
  2268                           
  2269                           ;src/pic18f4520/serial/serial.c: 124:     RCSTAbits.CREN = 0x01;
  2270  000BAA  88AB               	bsf	171,4,c	;volatile
  2271                           
  2272                           ;src/pic18f4520/serial/serial.c: 126:     PIE1bits.RCIE = 0x01;
  2273  000BAC  8A9D               	bsf	157,5,c	;volatile
  2274  000BAE                     
  2275                           ; BSR set to: 0
  2276  000BAE  0012               	return		;funcret
  2277  000BB0                     __end_of_Serial_1_Config:
  2278                           	callstack 0
  2279                           
  2280 ;; *************** function ___lldiv *****************
  2281 ;; Defined at:
  2282 ;;		line 7 in file "C:\Program Files\Microchip\xc8\v2.32\pic\sources\c99\common\__lldiv.c"
  2283 ;; Parameters:    Size  Location     Type
  2284 ;;  dividend        4   24[COMRAM] unsigned long 
  2285 ;;  divisor         4   28[COMRAM] unsigned long 
  2286 ;; Auto vars:     Size  Location     Type
  2287 ;;  quotient        4   32[COMRAM] unsigned long 
  2288 ;;  counter         1   36[COMRAM] unsigned char 
  2289 ;; Return value:  Size  Location     Type
  2290 ;;                  4   24[COMRAM] unsigned long 
  2291 ;; Registers used:
  2292 ;;		wreg, status,2, status,0
  2293 ;; Tracked objects:
  2294 ;;		On entry : 0/0
  2295 ;;		On exit  : 0/0
  2296 ;;		Unchanged: 0/0
  2297 ;; Data sizes:     COMRAM   BANK0   BANK1   BANK2   BANK3   BANK4   BANK5
  2298 ;;      Params:         8       0       0       0       0       0       0
  2299 ;;      Locals:         5       0       0       0       0       0       0
  2300 ;;      Temps:          0       0       0       0       0       0       0
  2301 ;;      Totals:        13       0       0       0       0       0       0
  2302 ;;Total ram usage:       13 bytes
  2303 ;; Hardware stack levels used: 1
  2304 ;; Hardware stack levels required when called: 3
  2305 ;; This function calls:
  2306 ;;		Nothing
  2307 ;; This function is called by:
  2308 ;;		_Serial_1_Config
  2309 ;; This function uses a non-reentrant model
  2310 ;;
  2311                           
  2312                           	psect	text7
  2313  000F04                     __ptext7:
  2314                           	callstack 0
  2315  000F04                     ___lldiv:
  2316                           	callstack 26
  2317  000F04  0E00               	movlw	0
  2318  000F06  6E21               	movwf	___lldiv@quotient^0,c
  2319  000F08  0E00               	movlw	0
  2320  000F0A  6E22               	movwf	(___lldiv@quotient+1)^0,c
  2321  000F0C  0E00               	movlw	0
  2322  000F0E  6E23               	movwf	(___lldiv@quotient+2)^0,c
  2323  000F10  0E00               	movlw	0
  2324  000F12  6E24               	movwf	(___lldiv@quotient+3)^0,c
  2325  000F14  501D               	movf	___lldiv@divisor^0,w,c
  2326  000F16  101E               	iorwf	(___lldiv@divisor+1)^0,w,c
  2327  000F18  101F               	iorwf	(___lldiv@divisor+2)^0,w,c
  2328  000F1A  1020               	iorwf	(___lldiv@divisor+3)^0,w,c
  2329  000F1C  B4D8               	btfsc	status,2,c
  2330  000F1E  EF93  F007         	goto	u1631
  2331  000F22  EF95  F007         	goto	u1630
  2332  000F26                     u1631:
  2333  000F26  EFCB  F007         	goto	l656
  2334  000F2A                     u1630:
  2335  000F2A  0E01               	movlw	1
  2336  000F2C  6E25               	movwf	___lldiv@counter^0,c
  2337  000F2E  EF9F  F007         	goto	l3188
  2338  000F32                     l3186:
  2339  000F32  90D8               	bcf	status,0,c
  2340  000F34  361D               	rlcf	___lldiv@divisor^0,f,c
  2341  000F36  361E               	rlcf	(___lldiv@divisor+1)^0,f,c
  2342  000F38  361F               	rlcf	(___lldiv@divisor+2)^0,f,c
  2343  000F3A  3620               	rlcf	(___lldiv@divisor+3)^0,f,c
  2344  000F3C  2A25               	incf	___lldiv@counter^0,f,c
  2345  000F3E                     l3188:
  2346  000F3E  AE20               	btfss	(___lldiv@divisor+3)^0,7,c
  2347  000F40  EFA4  F007         	goto	u1641
  2348  000F44  EFA6  F007         	goto	u1640
  2349  000F48                     u1641:
  2350  000F48  EF99  F007         	goto	l3186
  2351  000F4C                     u1640:
  2352  000F4C                     l3190:
  2353  000F4C  90D8               	bcf	status,0,c
  2354  000F4E  3621               	rlcf	___lldiv@quotient^0,f,c
  2355  000F50  3622               	rlcf	(___lldiv@quotient+1)^0,f,c
  2356  000F52  3623               	rlcf	(___lldiv@quotient+2)^0,f,c
  2357  000F54  3624               	rlcf	(___lldiv@quotient+3)^0,f,c
  2358  000F56  501D               	movf	___lldiv@divisor^0,w,c
  2359  000F58  5C19               	subwf	___lldiv@dividend^0,w,c
  2360  000F5A  501E               	movf	(___lldiv@divisor+1)^0,w,c
  2361  000F5C  581A               	subwfb	(___lldiv@dividend+1)^0,w,c
  2362  000F5E  501F               	movf	(___lldiv@divisor+2)^0,w,c
  2363  000F60  581B               	subwfb	(___lldiv@dividend+2)^0,w,c
  2364  000F62  5020               	movf	(___lldiv@divisor+3)^0,w,c
  2365  000F64  581C               	subwfb	(___lldiv@dividend+3)^0,w,c
  2366  000F66  A0D8               	btfss	status,0,c
  2367  000F68  EFB8  F007         	goto	u1651
  2368  000F6C  EFBA  F007         	goto	u1650
  2369  000F70                     u1651:
  2370  000F70  EFC3  F007         	goto	l3198
  2371  000F74                     u1650:
  2372  000F74  501D               	movf	___lldiv@divisor^0,w,c
  2373  000F76  5E19               	subwf	___lldiv@dividend^0,f,c
  2374  000F78  501E               	movf	(___lldiv@divisor+1)^0,w,c
  2375  000F7A  5A1A               	subwfb	(___lldiv@dividend+1)^0,f,c
  2376  000F7C  501F               	movf	(___lldiv@divisor+2)^0,w,c
  2377  000F7E  5A1B               	subwfb	(___lldiv@dividend+2)^0,f,c
  2378  000F80  5020               	movf	(___lldiv@divisor+3)^0,w,c
  2379  000F82  5A1C               	subwfb	(___lldiv@dividend+3)^0,f,c
  2380  000F84  8021               	bsf	___lldiv@quotient^0,0,c
  2381  000F86                     l3198:
  2382  000F86  90D8               	bcf	status,0,c
  2383  000F88  3220               	rrcf	(___lldiv@divisor+3)^0,f,c
  2384  000F8A  321F               	rrcf	(___lldiv@divisor+2)^0,f,c
  2385  000F8C  321E               	rrcf	(___lldiv@divisor+1)^0,f,c
  2386  000F8E  321D               	rrcf	___lldiv@divisor^0,f,c
  2387  000F90  2E25               	decfsz	___lldiv@counter^0,f,c
  2388  000F92  EFA6  F007         	goto	l3190
  2389  000F96                     l656:
  2390  000F96  C021  F019         	movff	___lldiv@quotient,?___lldiv
  2391  000F9A  C022  F01A         	movff	___lldiv@quotient+1,?___lldiv+1
  2392  000F9E  C023  F01B         	movff	___lldiv@quotient+2,?___lldiv+2
  2393  000FA2  C024  F01C         	movff	___lldiv@quotient+3,?___lldiv+3
  2394  000FA6  0012               	return		;funcret
  2395  000FA8                     __end_of___lldiv:
  2396                           	callstack 0
  2397                           
  2398 ;; *************** function _EEPROM_Erase *****************
  2399 ;; Defined at:
  2400 ;;		line 70 in file "src/pic18f4520/eeprom/eeprom.c"
  2401 ;; Parameters:    Size  Location     Type
  2402 ;;		None
  2403 ;; Auto vars:     Size  Location     Type
  2404 ;;  addr            1   26[COMRAM] unsigned char 
  2405 ;; Return value:  Size  Location     Type
  2406 ;;                  1    wreg      void 
  2407 ;; Registers used:
  2408 ;;		wreg, status,2, status,0, cstack
  2409 ;; Tracked objects:
  2410 ;;		On entry : 0/0
  2411 ;;		On exit  : 0/0
  2412 ;;		Unchanged: 0/0
  2413 ;; Data sizes:     COMRAM   BANK0   BANK1   BANK2   BANK3   BANK4   BANK5
  2414 ;;      Params:         0       0       0       0       0       0       0
  2415 ;;      Locals:         1       0       0       0       0       0       0
  2416 ;;      Temps:          0       0       0       0       0       0       0
  2417 ;;      Totals:         1       0       0       0       0       0       0
  2418 ;;Total ram usage:        1 bytes
  2419 ;; Hardware stack levels used: 1
  2420 ;; Hardware stack levels required when called: 4
  2421 ;; This function calls:
  2422 ;;		_EEPROM_DataWrite
  2423 ;; This function is called by:
  2424 ;;		_main
  2425 ;;		_main_application
  2426 ;; This function uses a non-reentrant model
  2427 ;;
  2428                           
  2429                           	psect	text8
  2430  001500                     __ptext8:
  2431                           	callstack 0
  2432  001500                     _EEPROM_Erase:
  2433                           	callstack 26
  2434  001500                     
  2435                           ;src/pic18f4520/eeprom/eeprom.c: 72:     uint8_t addr;;src/pic18f4520/eeprom/eeprom.c: 7
      +                          4:     for(addr = 0; addr < 0xFF; addr++)
  2436  001500  0E00               	movlw	0
  2437  001502  6E1B               	movwf	EEPROM_Erase@addr^0,c
  2438  001504                     l3270:
  2439                           
  2440                           ;src/pic18f4520/eeprom/eeprom.c: 75:     {;src/pic18f4520/eeprom/eeprom.c: 76:          
      +                          EEPROM_DataWrite(0xFF, addr);
  2441  001504  C01B  F019         	movff	EEPROM_Erase@addr,EEPROM_DataWrite@addr
  2442  001508  0EFF               	movlw	255
  2443  00150A  EC67  F00A         	call	_EEPROM_DataWrite
  2444  00150E                     
  2445                           ;src/pic18f4520/eeprom/eeprom.c: 77:     }
  2446  00150E  2A1B               	incf	EEPROM_Erase@addr^0,f,c
  2447  001510  281B               	incf	EEPROM_Erase@addr^0,w,c
  2448  001512  A4D8               	btfss	status,2,c
  2449  001514  EF8E  F00A         	goto	u1741
  2450  001518  EF90  F00A         	goto	u1740
  2451  00151C                     u1741:
  2452  00151C  EF82  F00A         	goto	l3270
  2453  001520                     u1740:
  2454  001520                     
  2455                           ;src/pic18f4520/eeprom/eeprom.c: 79:     address = 0x00;
  2456  001520  0E00               	movlw	0
  2457  001522  6E40               	movwf	_address^0,c
  2458  001524  0012               	return		;funcret
  2459  001526                     __end_of_EEPROM_Erase:
  2460                           	callstack 0
  2461                           
  2462 ;; *************** function _EEPROM_DataWrite *****************
  2463 ;; Defined at:
  2464 ;;		line 7 in file "src/pic18f4520/eeprom/eeprom.c"
  2465 ;; Parameters:    Size  Location     Type
  2466 ;;  data            1    wreg     unsigned char 
  2467 ;;  addr            1   24[COMRAM] unsigned char 
  2468 ;; Auto vars:     Size  Location     Type
  2469 ;;  data            1   25[COMRAM] unsigned char 
  2470 ;;  STATUS_INTCO    1    0        unsigned char 
  2471 ;; Return value:  Size  Location     Type
  2472 ;;                  1    wreg      unsigned char 
  2473 ;; Registers used:
  2474 ;;		wreg, status,2, status,0
  2475 ;; Tracked objects:
  2476 ;;		On entry : 0/0
  2477 ;;		On exit  : 0/0
  2478 ;;		Unchanged: 0/0
  2479 ;; Data sizes:     COMRAM   BANK0   BANK1   BANK2   BANK3   BANK4   BANK5
  2480 ;;      Params:         1       0       0       0       0       0       0
  2481 ;;      Locals:         1       0       0       0       0       0       0
  2482 ;;      Temps:          0       0       0       0       0       0       0
  2483 ;;      Totals:         2       0       0       0       0       0       0
  2484 ;;Total ram usage:        2 bytes
  2485 ;; Hardware stack levels used: 1
  2486 ;; Hardware stack levels required when called: 3
  2487 ;; This function calls:
  2488 ;;		Nothing
  2489 ;; This function is called by:
  2490 ;;		_EEPROM_Erase
  2491 ;;		_main_application
  2492 ;;		_EEPROM_WriteBuffer
  2493 ;; This function uses a non-reentrant model
  2494 ;;
  2495                           
  2496                           	psect	text9
  2497  0014CE                     __ptext9:
  2498                           	callstack 0
  2499  0014CE                     _EEPROM_DataWrite:
  2500                           	callstack 26
  2501                           
  2502                           ;incstack = 0
  2503                           ;EEPROM_DataWrite@data stored from wreg
  2504  0014CE  6E1A               	movwf	EEPROM_DataWrite@data^0,c
  2505  0014D0  50F2               	movf	242,w,c	;volatile
  2506  0014D2                     l594:
  2507  0014D2  B2A6               	btfsc	166,1,c	;volsfr
  2508  0014D4  EF6E  F00A         	goto	u1621
  2509  0014D8  EF70  F00A         	goto	u1620
  2510  0014DC                     u1621:
  2511  0014DC  EF69  F00A         	goto	l594
  2512  0014E0                     u1620:
  2513  0014E0                     
  2514                           ;src/pic18f4520/eeprom/eeprom.c: 13:     EEADR = addr;
  2515  0014E0  C019  FFA9         	movff	EEPROM_DataWrite@addr,4009	;volatile
  2516  0014E4                     
  2517                           ;src/pic18f4520/eeprom/eeprom.c: 14:     EEDATA = data;
  2518  0014E4  C01A  FFA8         	movff	EEPROM_DataWrite@data,4008	;volatile
  2519  0014E8                     
  2520                           ;src/pic18f4520/eeprom/eeprom.c: 16:     EECON1bits.EEPGD = 0x00;
  2521  0014E8  9EA6               	bcf	166,7,c	;volsfr
  2522  0014EA                     
  2523                           ;src/pic18f4520/eeprom/eeprom.c: 17:     EECON1bits.CFGS = 0x00;
  2524  0014EA  9CA6               	bcf	166,6,c	;volsfr
  2525  0014EC                     
  2526                           ;src/pic18f4520/eeprom/eeprom.c: 18:     EECON1bits.WREN = 1;
  2527  0014EC  84A6               	bsf	166,2,c	;volsfr
  2528  0014EE                     
  2529                           ;src/pic18f4520/eeprom/eeprom.c: 20:     INTCONbits.GIE = 0;
  2530  0014EE  9EF2               	bcf	242,7,c	;volatile
  2531  0014F0                     
  2532                           ;src/pic18f4520/eeprom/eeprom.c: 22:     EECON2 = 0x55;
  2533  0014F0  0E55               	movlw	85
  2534  0014F2  6EA7               	movwf	167,c	;volsfr
  2535  0014F4                     
  2536                           ;src/pic18f4520/eeprom/eeprom.c: 23:     EECON2 = 0xAA;
  2537  0014F4  0EAA               	movlw	170
  2538  0014F6  6EA7               	movwf	167,c	;volsfr
  2539  0014F8                     
  2540                           ;src/pic18f4520/eeprom/eeprom.c: 24:     EECON1bits.WR = 1;
  2541  0014F8  82A6               	bsf	166,1,c	;volsfr
  2542  0014FA                     
  2543                           ;src/pic18f4520/eeprom/eeprom.c: 26:     INTCONbits.GIE_GIEH = 1;
  2544  0014FA  8EF2               	bsf	242,7,c	;volatile
  2545  0014FC                     
  2546                           ;src/pic18f4520/eeprom/eeprom.c: 29:     return ++address;;	Return value of _EEPROM_Data
      +                          Write is never used
  2547  0014FC  2A40               	incf	_address^0,f,c
  2548  0014FE  0012               	return		;funcret
  2549  001500                     __end_of_EEPROM_DataWrite:
  2550                           	callstack 0
  2551                           
  2552 ;; *************** function _Display_WriteString *****************
  2553 ;; Defined at:
  2554 ;;		line 109 in file "src/app/display_lcd/display_lcd.c"
  2555 ;; Parameters:    Size  Location     Type
  2556 ;;  string          2   27[COMRAM] PTR unsigned char 
  2557 ;;		 -> STR_15(10), STR_14(7), STR_13(8), STR_11(12), 
  2558 ;;		 -> vetorHum(7), vetorTemp(6), main_application@auxText(15), STR_3(8), 
  2559 ;;		 -> STR_2(8), STR_1(5), vector(3), 
  2560 ;;  length          1   29[COMRAM] unsigned char 
  2561 ;;  address         1   30[COMRAM] unsigned char 
  2562 ;; Auto vars:     Size  Location     Type
  2563 ;;  auxLength       1   31[COMRAM] unsigned char 
  2564 ;; Return value:  Size  Location     Type
  2565 ;;                  1    wreg      void 
  2566 ;; Registers used:
  2567 ;;		wreg, fsr0l, fsr0h, status,2, status,0, tblptrl, tblptrh, tblptru, cstack
  2568 ;; Tracked objects:
  2569 ;;		On entry : 0/0
  2570 ;;		On exit  : 0/0
  2571 ;;		Unchanged: 0/0
  2572 ;; Data sizes:     COMRAM   BANK0   BANK1   BANK2   BANK3   BANK4   BANK5
  2573 ;;      Params:         4       0       0       0       0       0       0
  2574 ;;      Locals:         1       0       0       0       0       0       0
  2575 ;;      Temps:          0       7       0       0       0       0       0
  2576 ;;      Totals:         5       7       0       0       0       0       0
  2577 ;;Total ram usage:       12 bytes
  2578 ;; Hardware stack levels used: 1
  2579 ;; Hardware stack levels required when called: 4
  2580 ;; This function calls:
  2581 ;;		_Display_WriteByte
  2582 ;; This function is called by:
  2583 ;;		_main
  2584 ;;		_main_application
  2585 ;;		_Display_Update
  2586 ;; This function uses a non-reentrant model
  2587 ;;
  2588                           
  2589                           	psect	text10
  2590  000FA8                     __ptext10:
  2591                           	callstack 0
  2592  000FA8                     _Display_WriteString:
  2593                           	callstack 26
  2594  000FA8                     
  2595                           ;src/app/display_lcd/display_lcd.c: 109: void Display_WriteString(char* string, uint8_t 
      +                          length, uint8_t address);src/app/display_lcd/display_lcd.c: 110: {;src/app/display_lcd/d
      +                          isplay_lcd.c: 111:     uint8_t auxLength = 0x00;
  2596  000FA8  0E00               	movlw	0
  2597  000FAA  6E20               	movwf	Display_WriteString@auxLength^0,c
  2598                           
  2599                           ;src/app/display_lcd/display_lcd.c: 114:     for(auxLength = 0; auxLength < length - 1; 
      +                          auxLength++)
  2600  000FAC  0E00               	movlw	0
  2601  000FAE  6E20               	movwf	Display_WriteString@auxLength^0,c
  2602  000FB0  EFF3  F007         	goto	l3208
  2603  000FB4                     l3204:
  2604                           
  2605                           ; BSR set to: 0
  2606                           ;src/app/display_lcd/display_lcd.c: 115:     {;src/app/display_lcd/display_lcd.c: 116:  
      +                                 Display_WriteByte((uint8_t)string[auxLength]);
  2607  000FB4  5020               	movf	Display_WriteString@auxLength^0,w,c
  2608  000FB6  241C               	addwf	Display_WriteString@string^0,w,c
  2609  000FB8  6FDB               	movwf	??_Display_WriteString& (0+255),b
  2610  000FBA  0E00               	movlw	0
  2611  000FBC  201D               	addwfc	(Display_WriteString@string+1)^0,w,c
  2612  000FBE  6FDC               	movwf	(??_Display_WriteString+1)& (0+255),b
  2613  000FC0  C0DB  FFF6         	movff	??_Display_WriteString,tblptrl
  2614  000FC4  C0DC  FFF7         	movff	??_Display_WriteString+1,tblptrh
  2615  000FC8  6AF8               	clrf	tblptru,c
  2616  000FCA  0E05               	movlw	(high __ramtop+-1)
  2617  000FCC  64F7               	cpfsgt	tblptrh,c
  2618  000FCE  D003               	bra	u1667
  2619  000FD0  0008               	tblrd		*
  2620  000FD2  50F5               	movf	tablat,w,c
  2621  000FD4  D005               	bra	u1660
  2622  000FD6                     u1667:
  2623  000FD6  CFF6 FFE9          	movff	tblptrl,fsr0l
  2624  000FDA  CFF7 FFEA          	movff	tblptrh,fsr0h
  2625  000FDE  50EF               	movf	indf0,w,c
  2626  000FE0                     u1660:
  2627  000FE0  EC6A  F009         	call	_Display_WriteByte
  2628  000FE4                     
  2629                           ;src/app/display_lcd/display_lcd.c: 117:     }
  2630  000FE4  2A20               	incf	Display_WriteString@auxLength^0,f,c
  2631  000FE6                     l3208:
  2632  000FE6  0EFF               	movlw	255
  2633  000FE8  0100               	movlb	0	; () banked
  2634  000FEA  6FDB               	movwf	??_Display_WriteString& (0+255),b
  2635  000FEC  0EFF               	movlw	255
  2636  000FEE  6FDC               	movwf	(??_Display_WriteString+1)& (0+255),b
  2637  000FF0  501E               	movf	Display_WriteString@length^0,w,c
  2638  000FF2  6FDD               	movwf	(??_Display_WriteString+2)& (0+255),b
  2639  000FF4  6BDE               	clrf	(??_Display_WriteString+3)& (0+255),b
  2640  000FF6  51DB               	movf	??_Display_WriteString& (0+255),w,b
  2641  000FF8  27DD               	addwf	(??_Display_WriteString+2)& (0+255),f,b
  2642  000FFA  51DC               	movf	(??_Display_WriteString+1)& (0+255),w,b
  2643  000FFC  23DE               	addwfc	(??_Display_WriteString+3)& (0+255),f,b
  2644  000FFE  5020               	movf	Display_WriteString@auxLength^0,w,c
  2645  001000  6FDF               	movwf	(??_Display_WriteString+4)& (0+255),b
  2646  001002  6BE0               	clrf	(??_Display_WriteString+5)& (0+255),b
  2647  001004  51DD               	movf	(??_Display_WriteString+2)& (0+255),w,b
  2648  001006  5DDF               	subwf	(??_Display_WriteString+4)& (0+255),w,b
  2649  001008  51E0               	movf	(??_Display_WriteString+5)& (0+255),w,b
  2650  00100A  0A80               	xorlw	128
  2651  00100C  6FE1               	movwf	(??_Display_WriteString+6)& (0+255),b
  2652  00100E  51DE               	movf	(??_Display_WriteString+3)& (0+255),w,b
  2653  001010  0A80               	xorlw	128
  2654  001012  59E1               	subwfb	(??_Display_WriteString+6)& (0+255),w,b
  2655  001014  A0D8               	btfss	status,0,c
  2656  001016  EF0F  F008         	goto	u1671
  2657  00101A  EF11  F008         	goto	u1670
  2658  00101E                     u1671:
  2659  00101E  EFDA  F007         	goto	l3204
  2660  001022                     u1670:
  2661  001022                     
  2662                           ; BSR set to: 0
  2663  001022  0012               	return		;funcret
  2664  001024                     __end_of_Display_WriteString:
  2665                           	callstack 0
  2666                           
  2667 ;; *************** function _Display_WriteByte *****************
  2668 ;; Defined at:
  2669 ;;		line 84 in file "src/app/display_lcd/display_lcd.c"
  2670 ;; Parameters:    Size  Location     Type
  2671 ;;  byte            1    wreg     unsigned char 
  2672 ;; Auto vars:     Size  Location     Type
  2673 ;;  byte            1   25[COMRAM] unsigned char 
  2674 ;;  auxByte         1   26[COMRAM] unsigned char 
  2675 ;; Return value:  Size  Location     Type
  2676 ;;                  1    wreg      void 
  2677 ;; Registers used:
  2678 ;;		wreg, status,2, status,0
  2679 ;; Tracked objects:
  2680 ;;		On entry : 0/0
  2681 ;;		On exit  : 0/0
  2682 ;;		Unchanged: 0/0
  2683 ;; Data sizes:     COMRAM   BANK0   BANK1   BANK2   BANK3   BANK4   BANK5
  2684 ;;      Params:         0       0       0       0       0       0       0
  2685 ;;      Locals:         2       0       0       0       0       0       0
  2686 ;;      Temps:          1       0       0       0       0       0       0
  2687 ;;      Totals:         3       0       0       0       0       0       0
  2688 ;;Total ram usage:        3 bytes
  2689 ;; Hardware stack levels used: 1
  2690 ;; Hardware stack levels required when called: 3
  2691 ;; This function calls:
  2692 ;;		Nothing
  2693 ;; This function is called by:
  2694 ;;		_main
  2695 ;;		_Display_WriteString
  2696 ;;		_DHT11_ReadData
  2697 ;;		_Display_Update
  2698 ;; This function uses a non-reentrant model
  2699 ;;
  2700                           
  2701                           	psect	text11
  2702  0012D4                     __ptext11:
  2703                           	callstack 0
  2704  0012D4                     _Display_WriteByte:
  2705                           	callstack 26
  2706                           
  2707                           ; BSR set to: 0
  2708                           ;incstack = 0
  2709                           ;Display_WriteByte@byte stored from wreg
  2710  0012D4  6E1A               	movwf	Display_WriteByte@byte^0,c
  2711  0012D6  5081               	movf	129,w,c	;volatile
  2712  0012D8  0908               	iorlw	8
  2713  0012DA  6E8A               	movwf	138,c	;volatile
  2714  0012DC                     
  2715                           ;src/app/display_lcd/display_lcd.c: 89:     auxByte = (byte & 0xF0);
  2716  0012DC  501A               	movf	Display_WriteByte@byte^0,w,c
  2717  0012DE  0BF0               	andlw	240
  2718  0012E0  6E1B               	movwf	Display_WriteByte@auxByte^0,c
  2719                           
  2720                           ;src/app/display_lcd/display_lcd.c: 90:     LATB = ((PORTB & 0x0F) | auxByte);;
  2721  0012E2  5081               	movf	129,w,c	;volatile
  2722  0012E4  0B0F               	andlw	15
  2723  0012E6  101B               	iorwf	Display_WriteByte@auxByte^0,w,c
  2724  0012E8  6E8A               	movwf	138,c	;volatile
  2725  0012EA  5081               	movf	129,w,c	;volatile
  2726  0012EC  0BFB               	andlw	251
  2727  0012EE  6E8A               	movwf	138,c	;volatile
  2728  0012F0  5081               	movf	129,w,c	;volatile
  2729  0012F2  0904               	iorlw	4
  2730  0012F4  6E8A               	movwf	138,c	;volatile
  2731  0012F6                     
  2732                           ;src/app/display_lcd/display_lcd.c: 94:     _delay((unsigned long)((100)*(12000000UL/400
      +                          0000.0)));
  2733  0012F6  0E64               	movlw	100
  2734  0012F8                     u2227:
  2735  0012F8  2EE8               	decfsz	wreg,f,c
  2736  0012FA  D7FE               	bra	u2227
  2737  0012FC  5081               	movf	129,w,c	;volatile
  2738  0012FE  0BFB               	andlw	251
  2739  001300  6E8A               	movwf	138,c	;volatile
  2740  001302                     
  2741                           ;src/app/display_lcd/display_lcd.c: 98:     auxByte = (byte << 0x04);
  2742  001302  381A               	swapf	Display_WriteByte@byte^0,w,c
  2743  001304  0BF0               	andlw	240
  2744  001306  6E1B               	movwf	Display_WriteByte@auxByte^0,c
  2745                           
  2746                           ;src/app/display_lcd/display_lcd.c: 99:     LATB = ((PORTB & 0x0F) | auxByte);;
  2747  001308  5081               	movf	129,w,c	;volatile
  2748  00130A  0B0F               	andlw	15
  2749  00130C  101B               	iorwf	Display_WriteByte@auxByte^0,w,c
  2750  00130E  6E8A               	movwf	138,c	;volatile
  2751  001310  5081               	movf	129,w,c	;volatile
  2752  001312  0BFB               	andlw	251
  2753  001314  6E8A               	movwf	138,c	;volatile
  2754  001316  5081               	movf	129,w,c	;volatile
  2755  001318  0904               	iorlw	4
  2756  00131A  6E8A               	movwf	138,c	;volatile
  2757  00131C                     
  2758                           ;src/app/display_lcd/display_lcd.c: 103:     _delay((unsigned long)((100)*(12000000UL/40
      +                          00000.0)));
  2759  00131C  0E64               	movlw	100
  2760  00131E                     u2237:
  2761  00131E  2EE8               	decfsz	wreg,f,c
  2762  001320  D7FE               	bra	u2237
  2763  001322  5081               	movf	129,w,c	;volatile
  2764  001324  0BFB               	andlw	251
  2765  001326  6E8A               	movwf	138,c	;volatile
  2766  001328                     
  2767                           ;src/app/display_lcd/display_lcd.c: 106:     _delay((unsigned long)((2)*(12000000UL/4000
      +                          .0)));
  2768  001328  0E08               	movlw	8
  2769  00132A  6E19               	movwf	??_Display_WriteByte^0,c
  2770  00132C  0ECA               	movlw	202
  2771  00132E                     u2247:
  2772  00132E  2EE8               	decfsz	wreg,f,c
  2773  001330  D7FE               	bra	u2247
  2774  001332  2E19               	decfsz	??_Display_WriteByte^0,f,c
  2775  001334  D7FC               	bra	u2247
  2776  001336  0012               	return		;funcret
  2777  001338                     __end_of_Display_WriteByte:
  2778                           	callstack 0
  2779                           
  2780 ;; *************** function _DisplayLCD_Init *****************
  2781 ;; Defined at:
  2782 ;;		line 10 in file "src/app/display_lcd/display_lcd.c"
  2783 ;; Parameters:    Size  Location     Type
  2784 ;;		None
  2785 ;; Auto vars:     Size  Location     Type
  2786 ;;		None
  2787 ;; Return value:  Size  Location     Type
  2788 ;;                  1    wreg      void 
  2789 ;; Registers used:
  2790 ;;		wreg, status,2, status,0, cstack
  2791 ;; Tracked objects:
  2792 ;;		On entry : 0/0
  2793 ;;		On exit  : 0/0
  2794 ;;		Unchanged: 0/0
  2795 ;; Data sizes:     COMRAM   BANK0   BANK1   BANK2   BANK3   BANK4   BANK5
  2796 ;;      Params:         0       0       0       0       0       0       0
  2797 ;;      Locals:         0       0       0       0       0       0       0
  2798 ;;      Temps:          1       0       0       0       0       0       0
  2799 ;;      Totals:         1       0       0       0       0       0       0
  2800 ;;Total ram usage:        1 bytes
  2801 ;; Hardware stack levels used: 1
  2802 ;; Hardware stack levels required when called: 4
  2803 ;; This function calls:
  2804 ;;		_Display_SendByte
  2805 ;;		_sendNibble
  2806 ;; This function is called by:
  2807 ;;		_main
  2808 ;; This function uses a non-reentrant model
  2809 ;;
  2810                           
  2811                           	psect	text12
  2812  00139C                     __ptext12:
  2813                           	callstack 0
  2814  00139C                     _DisplayLCD_Init:
  2815                           	callstack 26
  2816  00139C                     
  2817                           ;src/app/display_lcd/display_lcd.c: 13:     _delay((unsigned long)((20)*(12000000UL/4000
      +                          .0)));
  2818  00139C  0E4E               	movlw	78
  2819  00139E  6E1D               	movwf	??_DisplayLCD_Init^0,c
  2820  0013A0  0EEB               	movlw	235
  2821  0013A2                     u2257:
  2822  0013A2  2EE8               	decfsz	wreg,f,c
  2823  0013A4  D7FE               	bra	u2257
  2824  0013A6  2E1D               	decfsz	??_DisplayLCD_Init^0,f,c
  2825  0013A8  D7FC               	bra	u2257
  2826  0013AA  F000               	nop	
  2827  0013AC                     
  2828                           ;src/app/display_lcd/display_lcd.c: 16:     TRISB = 0x00;;
  2829  0013AC  0E00               	movlw	0
  2830  0013AE  6E93               	movwf	147,c	;volatile
  2831  0013B0                     
  2832                           ;src/app/display_lcd/display_lcd.c: 19:     sendNibble(0x20);
  2833  0013B0  0E20               	movlw	32
  2834  0013B2  EC4D  F00A         	call	_sendNibble
  2835  0013B6                     
  2836                           ;src/app/display_lcd/display_lcd.c: 20:     sendNibble(0x20);
  2837  0013B6  0E20               	movlw	32
  2838  0013B8  EC4D  F00A         	call	_sendNibble
  2839  0013BC                     
  2840                           ;src/app/display_lcd/display_lcd.c: 21:     sendNibble(0x30);
  2841  0013BC  0E30               	movlw	48
  2842  0013BE  EC4D  F00A         	call	_sendNibble
  2843  0013C2                     
  2844                           ;src/app/display_lcd/display_lcd.c: 24:     Display_SendByte((0b00100000 | 0b00000000 | 
      +                          0b00001000 | 0b00000100), 0);
  2845  0013C2  0E00               	movlw	0
  2846  0013C4  6E19               	movwf	Display_SendByte@comm^0,c
  2847  0013C6  0E2C               	movlw	44
  2848  0013C8  EC12  F008         	call	_Display_SendByte
  2849  0013CC                     
  2850                           ;src/app/display_lcd/display_lcd.c: 27:     Display_SendByte((0b00000100 | 0b00000010 | 
      +                          0b00000000), 0);
  2851  0013CC  0E00               	movlw	0
  2852  0013CE  6E19               	movwf	Display_SendByte@comm^0,c
  2853  0013D0  0E06               	movlw	6
  2854  0013D2  EC12  F008         	call	_Display_SendByte
  2855  0013D6                     
  2856                           ;src/app/display_lcd/display_lcd.c: 31:     Display_SendByte((0b00001000 | 0b00000100 | 
      +                          0b00000010 | 0b00000001 ), 0);
  2857  0013D6  0E00               	movlw	0
  2858  0013D8  6E19               	movwf	Display_SendByte@comm^0,c
  2859  0013DA  0E0F               	movlw	15
  2860  0013DC  EC12  F008         	call	_Display_SendByte
  2861  0013E0                     
  2862                           ;src/app/display_lcd/display_lcd.c: 34:     Display_SendByte(0b00000001, 0);
  2863  0013E0  0E00               	movlw	0
  2864  0013E2  6E19               	movwf	Display_SendByte@comm^0,c
  2865  0013E4  0E01               	movlw	1
  2866  0013E6  EC12  F008         	call	_Display_SendByte
  2867  0013EA                     
  2868                           ;src/app/display_lcd/display_lcd.c: 35:    _delay((unsigned long)((2)*(12000000UL/4000.0
      +                          )));
  2869  0013EA  0E08               	movlw	8
  2870  0013EC  6E1D               	movwf	??_DisplayLCD_Init^0,c
  2871  0013EE  0ECA               	movlw	202
  2872  0013F0                     u2267:
  2873  0013F0  2EE8               	decfsz	wreg,f,c
  2874  0013F2  D7FE               	bra	u2267
  2875  0013F4  2E1D               	decfsz	??_DisplayLCD_Init^0,f,c
  2876  0013F6  D7FC               	bra	u2267
  2877  0013F8  0012               	return		;funcret
  2878  0013FA                     __end_of_DisplayLCD_Init:
  2879                           	callstack 0
  2880                           
  2881 ;; *************** function _sendNibble *****************
  2882 ;; Defined at:
  2883 ;;		line 43 in file "src/app/display_lcd/display_lcd.c"
  2884 ;; Parameters:    Size  Location     Type
  2885 ;;  nibble          1    wreg     unsigned char 
  2886 ;; Auto vars:     Size  Location     Type
  2887 ;;  nibble          1   25[COMRAM] unsigned char 
  2888 ;;  auxNibble       1    0        unsigned char 
  2889 ;; Return value:  Size  Location     Type
  2890 ;;                  1    wreg      void 
  2891 ;; Registers used:
  2892 ;;		wreg, status,2, status,0
  2893 ;; Tracked objects:
  2894 ;;		On entry : 0/0
  2895 ;;		On exit  : 0/0
  2896 ;;		Unchanged: 0/0
  2897 ;; Data sizes:     COMRAM   BANK0   BANK1   BANK2   BANK3   BANK4   BANK5
  2898 ;;      Params:         0       0       0       0       0       0       0
  2899 ;;      Locals:         1       0       0       0       0       0       0
  2900 ;;      Temps:          1       0       0       0       0       0       0
  2901 ;;      Totals:         2       0       0       0       0       0       0
  2902 ;;Total ram usage:        2 bytes
  2903 ;; Hardware stack levels used: 1
  2904 ;; Hardware stack levels required when called: 3
  2905 ;; This function calls:
  2906 ;;		Nothing
  2907 ;; This function is called by:
  2908 ;;		_DisplayLCD_Init
  2909 ;; This function uses a non-reentrant model
  2910 ;;
  2911                           
  2912                           	psect	text13
  2913  00149A                     __ptext13:
  2914                           	callstack 0
  2915  00149A                     _sendNibble:
  2916                           	callstack 26
  2917                           
  2918                           ;incstack = 0
  2919                           ;sendNibble@nibble stored from wreg
  2920  00149A  6E1A               	movwf	sendNibble@nibble^0,c
  2921  00149C  5081               	movf	129,w,c	;volatile
  2922  00149E  0BF7               	andlw	247
  2923  0014A0  6E8A               	movwf	138,c	;volatile
  2924  0014A2                     
  2925                           ;src/app/display_lcd/display_lcd.c: 50:     if(0x01 == 0x01) LATB = (PORTB | (1 << 2)); 
      +                          else LATB = (PORTB & ~((1 << 2)));;
  2926  0014A2  5081               	movf	129,w,c	;volatile
  2927  0014A4  0B0F               	andlw	15
  2928  0014A6  101A               	iorwf	sendNibble@nibble^0,w,c
  2929  0014A8  6E8A               	movwf	138,c	;volatile
  2930  0014AA  5081               	movf	129,w,c	;volatile
  2931  0014AC  0904               	iorlw	4
  2932  0014AE  6E8A               	movwf	138,c	;volatile
  2933  0014B0                     
  2934                           ;src/app/display_lcd/display_lcd.c: 51:     _delay((unsigned long)((100)*(12000000UL/400
      +                          0000.0)));
  2935  0014B0  0E64               	movlw	100
  2936  0014B2                     u2277:
  2937  0014B2  2EE8               	decfsz	wreg,f,c
  2938  0014B4  D7FE               	bra	u2277
  2939  0014B6  5081               	movf	129,w,c	;volatile
  2940  0014B8  0BFB               	andlw	251
  2941  0014BA  6E8A               	movwf	138,c	;volatile
  2942  0014BC                     
  2943                           ;src/app/display_lcd/display_lcd.c: 54:     _delay((unsigned long)((1)*(12000000UL/4000.
      +                          0)));
  2944  0014BC  0E04               	movlw	4
  2945  0014BE  6E19               	movwf	??_sendNibble^0,c
  2946  0014C0  0EE4               	movlw	228
  2947  0014C2                     u2287:
  2948  0014C2  2EE8               	decfsz	wreg,f,c
  2949  0014C4  D7FE               	bra	u2287
  2950  0014C6  2E19               	decfsz	??_sendNibble^0,f,c
  2951  0014C8  D7FC               	bra	u2287
  2952  0014CA  D000               	nop2	
  2953  0014CC  0012               	return		;funcret
  2954  0014CE                     __end_of_sendNibble:
  2955                           	callstack 0
  2956                           
  2957 ;; *************** function _Display_SendByte *****************
  2958 ;; Defined at:
  2959 ;;		line 57 in file "src/app/display_lcd/display_lcd.c"
  2960 ;; Parameters:    Size  Location     Type
  2961 ;;  byte            1    wreg     unsigned char 
  2962 ;;  comm            1   24[COMRAM] unsigned char 
  2963 ;; Auto vars:     Size  Location     Type
  2964 ;;  byte            1   26[COMRAM] unsigned char 
  2965 ;;  auxByte         1   27[COMRAM] unsigned char 
  2966 ;; Return value:  Size  Location     Type
  2967 ;;                  1    wreg      void 
  2968 ;; Registers used:
  2969 ;;		wreg, status,2, status,0
  2970 ;; Tracked objects:
  2971 ;;		On entry : 0/0
  2972 ;;		On exit  : 0/0
  2973 ;;		Unchanged: 0/0
  2974 ;; Data sizes:     COMRAM   BANK0   BANK1   BANK2   BANK3   BANK4   BANK5
  2975 ;;      Params:         1       0       0       0       0       0       0
  2976 ;;      Locals:         2       0       0       0       0       0       0
  2977 ;;      Temps:          1       0       0       0       0       0       0
  2978 ;;      Totals:         4       0       0       0       0       0       0
  2979 ;;Total ram usage:        4 bytes
  2980 ;; Hardware stack levels used: 1
  2981 ;; Hardware stack levels required when called: 3
  2982 ;; This function calls:
  2983 ;;		Nothing
  2984 ;; This function is called by:
  2985 ;;		_main
  2986 ;;		_DisplayLCD_Init
  2987 ;;		_main_application
  2988 ;;		_Display_Update
  2989 ;; This function uses a non-reentrant model
  2990 ;;
  2991                           
  2992                           	psect	text14
  2993  001024                     __ptext14:
  2994                           	callstack 0
  2995  001024                     _Display_SendByte:
  2996                           	callstack 27
  2997                           
  2998                           ;incstack = 0
  2999                           ;Display_SendByte@byte stored from wreg
  3000  001024  6E1B               	movwf	Display_SendByte@byte^0,c
  3001  001026                     
  3002                           ;src/app/display_lcd/display_lcd.c: 61:     if(comm == 0x01) LATB = (PORTB | (1 << 3)); 
      +                          else LATB = (PORTB & ~((1 << 3)));;
  3003  001026  0419               	decf	Display_SendByte@comm^0,w,c
  3004  001028  A4D8               	btfss	status,2,c
  3005  00102A  EF19  F008         	goto	u1611
  3006  00102E  EF1B  F008         	goto	u1610
  3007  001032                     u1611:
  3008  001032  EF20  F008         	goto	l3078
  3009  001036                     u1610:
  3010  001036  5081               	movf	129,w,c	;volatile
  3011  001038  0908               	iorlw	8
  3012  00103A  6E8A               	movwf	138,c	;volatile
  3013  00103C  EF23  F008         	goto	l280
  3014  001040                     l3078:
  3015  001040  5081               	movf	129,w,c	;volatile
  3016  001042  0BF7               	andlw	247
  3017  001044  6E8A               	movwf	138,c	;volatile
  3018  001046                     l280:
  3019                           
  3020                           ;src/app/display_lcd/display_lcd.c: 63:     auxByte = (byte & 0xF0);
  3021  001046  501B               	movf	Display_SendByte@byte^0,w,c
  3022  001048  0BF0               	andlw	240
  3023  00104A  6E1C               	movwf	Display_SendByte@auxByte^0,c
  3024                           
  3025                           ;src/app/display_lcd/display_lcd.c: 65:     LATB = ((PORTB & 0x0F) | auxByte);;
  3026  00104C  5081               	movf	129,w,c	;volatile
  3027  00104E  0B0F               	andlw	15
  3028  001050  101C               	iorwf	Display_SendByte@auxByte^0,w,c
  3029  001052  6E8A               	movwf	138,c	;volatile
  3030  001054  5081               	movf	129,w,c	;volatile
  3031  001056  0BFB               	andlw	251
  3032  001058  6E8A               	movwf	138,c	;volatile
  3033  00105A  5081               	movf	129,w,c	;volatile
  3034  00105C  0904               	iorlw	4
  3035  00105E  6E8A               	movwf	138,c	;volatile
  3036  001060                     
  3037                           ;src/app/display_lcd/display_lcd.c: 69:     _delay((unsigned long)((100)*(12000000UL/400
      +                          0000.0)));
  3038  001060  0E64               	movlw	100
  3039  001062                     u2297:
  3040  001062  2EE8               	decfsz	wreg,f,c
  3041  001064  D7FE               	bra	u2297
  3042  001066  5081               	movf	129,w,c	;volatile
  3043  001068  0BFB               	andlw	251
  3044  00106A  6E8A               	movwf	138,c	;volatile
  3045  00106C                     
  3046                           ;src/app/display_lcd/display_lcd.c: 72:     auxByte = (byte << 0x04);
  3047  00106C  381B               	swapf	Display_SendByte@byte^0,w,c
  3048  00106E  0BF0               	andlw	240
  3049  001070  6E1C               	movwf	Display_SendByte@auxByte^0,c
  3050  001072                     
  3051                           ;src/app/display_lcd/display_lcd.c: 74:     LATB = auxByte;;
  3052  001072  C01C  FF8A         	movff	Display_SendByte@auxByte,3978	;volatile
  3053  001076  5081               	movf	129,w,c	;volatile
  3054  001078  0BFB               	andlw	251
  3055  00107A  6E8A               	movwf	138,c	;volatile
  3056  00107C  5081               	movf	129,w,c	;volatile
  3057  00107E  0904               	iorlw	4
  3058  001080  6E8A               	movwf	138,c	;volatile
  3059  001082                     
  3060                           ;src/app/display_lcd/display_lcd.c: 78:     _delay((unsigned long)((100)*(12000000UL/400
      +                          0000.0)));
  3061  001082  0E64               	movlw	100
  3062  001084                     u2307:
  3063  001084  2EE8               	decfsz	wreg,f,c
  3064  001086  D7FE               	bra	u2307
  3065  001088  5081               	movf	129,w,c	;volatile
  3066  00108A  0BFB               	andlw	251
  3067  00108C  6E8A               	movwf	138,c	;volatile
  3068  00108E                     
  3069                           ;src/app/display_lcd/display_lcd.c: 81:     _delay((unsigned long)((1)*(12000000UL/4000.
      +                          0)));
  3070  00108E  0E04               	movlw	4
  3071  001090  6E1A               	movwf	??_Display_SendByte^0,c
  3072  001092  0EE4               	movlw	228
  3073  001094                     u2317:
  3074  001094  2EE8               	decfsz	wreg,f,c
  3075  001096  D7FE               	bra	u2317
  3076  001098  2E1A               	decfsz	??_Display_SendByte^0,f,c
  3077  00109A  D7FC               	bra	u2317
  3078  00109C  D000               	nop2	
  3079  00109E  0012               	return		;funcret
  3080  0010A0                     __end_of_Display_SendByte:
  3081                           	callstack 0
  3082                           
  3083 ;; *************** function _DHT11_Start *****************
  3084 ;; Defined at:
  3085 ;;		line 47 in file "src/app/dht11/dht11.c"
  3086 ;; Parameters:    Size  Location     Type
  3087 ;;		None
  3088 ;; Auto vars:     Size  Location     Type
  3089 ;;		None
  3090 ;; Return value:  Size  Location     Type
  3091 ;;                  1    wreg      void 
  3092 ;; Registers used:
  3093 ;;		wreg, status,2, status,0
  3094 ;; Tracked objects:
  3095 ;;		On entry : 0/0
  3096 ;;		On exit  : 0/0
  3097 ;;		Unchanged: 0/0
  3098 ;; Data sizes:     COMRAM   BANK0   BANK1   BANK2   BANK3   BANK4   BANK5
  3099 ;;      Params:         0       0       0       0       0       0       0
  3100 ;;      Locals:         0       0       0       0       0       0       0
  3101 ;;      Temps:          1       0       0       0       0       0       0
  3102 ;;      Totals:         1       0       0       0       0       0       0
  3103 ;;Total ram usage:        1 bytes
  3104 ;; Hardware stack levels used: 1
  3105 ;; Hardware stack levels required when called: 3
  3106 ;; This function calls:
  3107 ;;		Nothing
  3108 ;; This function is called by:
  3109 ;;		_main
  3110 ;; This function uses a non-reentrant model
  3111 ;;
  3112                           
  3113                           	psect	text15
  3114  001526                     __ptext15:
  3115                           	callstack 0
  3116  001526                     _DHT11_Start:
  3117                           	callstack 27
  3118  001526  5095               	movf	149,w,c	;volatile
  3119  001528  0BFD               	andlw	253
  3120  00152A  6E95               	movwf	149,c	;volatile
  3121  00152C  5083               	movf	131,w,c	;volatile
  3122  00152E  0BFD               	andlw	253
  3123  001530  6E8C               	movwf	140,c	;volatile
  3124  001532                     
  3125                           ;src/app/dht11/dht11.c: 52:     _delay((unsigned long)((20)*(12000000UL/4000.0)));
  3126  001532  0E4E               	movlw	78
  3127  001534  6E19               	movwf	??_DHT11_Start^0,c
  3128  001536  0EEB               	movlw	235
  3129  001538                     u2327:
  3130  001538  2EE8               	decfsz	wreg,f,c
  3131  00153A  D7FE               	bra	u2327
  3132  00153C  2E19               	decfsz	??_DHT11_Start^0,f,c
  3133  00153E  D7FC               	bra	u2327
  3134  001540  F000               	nop	
  3135  001542  5095               	movf	149,w,c	;volatile
  3136  001544  0902               	iorlw	2
  3137  001546  6E95               	movwf	149,c	;volatile
  3138  001548  0012               	return		;funcret
  3139  00154A                     __end_of_DHT11_Start:
  3140                           	callstack 0
  3141                           
  3142 ;; *************** function _DHT11_Check_Response *****************
  3143 ;; Defined at:
  3144 ;;		line 56 in file "src/app/dht11/dht11.c"
  3145 ;; Parameters:    Size  Location     Type
  3146 ;;		None
  3147 ;; Auto vars:     Size  Location     Type
  3148 ;;		None
  3149 ;; Return value:  Size  Location     Type
  3150 ;;                  1    wreg      void 
  3151 ;; Registers used:
  3152 ;;		status,2, status,0
  3153 ;; Tracked objects:
  3154 ;;		On entry : 0/0
  3155 ;;		On exit  : 0/0
  3156 ;;		Unchanged: 0/0
  3157 ;; Data sizes:     COMRAM   BANK0   BANK1   BANK2   BANK3   BANK4   BANK5
  3158 ;;      Params:         0       0       0       0       0       0       0
  3159 ;;      Locals:         0       0       0       0       0       0       0
  3160 ;;      Temps:          1       0       0       0       0       0       0
  3161 ;;      Totals:         1       0       0       0       0       0       0
  3162 ;;Total ram usage:        1 bytes
  3163 ;; Hardware stack levels used: 1
  3164 ;; Hardware stack levels required when called: 3
  3165 ;; This function calls:
  3166 ;;		Nothing
  3167 ;; This function is called by:
  3168 ;;		_main
  3169 ;; This function uses a non-reentrant model
  3170 ;;
  3171                           
  3172                           	psect	text16
  3173  001456                     __ptext16:
  3174                           	callstack 0
  3175  001456                     _DHT11_Check_Response:
  3176                           	callstack 27
  3177  001456                     l3294:
  3178  001456  CF83 F019          	movff	3971,??_DHT11_Check_Response	;volatile
  3179  00145A  90D8               	bcf	status,0,c
  3180  00145C  3219               	rrcf	??_DHT11_Check_Response^0,f,c
  3181  00145E  B019               	btfsc	??_DHT11_Check_Response^0,0,c
  3182  001460  EF34  F00A         	goto	u1751
  3183  001464  EF36  F00A         	goto	u1750
  3184  001468                     u1751:
  3185  001468  EF2B  F00A         	goto	l3294
  3186  00146C                     u1750:
  3187  00146C                     l3296:
  3188  00146C  CF83 F019          	movff	3971,??_DHT11_Check_Response	;volatile
  3189  001470  90D8               	bcf	status,0,c
  3190  001472  3219               	rrcf	??_DHT11_Check_Response^0,f,c
  3191  001474  A019               	btfss	??_DHT11_Check_Response^0,0,c
  3192  001476  EF3F  F00A         	goto	u1761
  3193  00147A  EF41  F00A         	goto	u1760
  3194  00147E                     u1761:
  3195  00147E  EF36  F00A         	goto	l3296
  3196  001482                     u1760:
  3197  001482                     l3298:
  3198  001482  CF83 F019          	movff	3971,??_DHT11_Check_Response	;volatile
  3199  001486  90D8               	bcf	status,0,c
  3200  001488  3219               	rrcf	??_DHT11_Check_Response^0,f,c
  3201  00148A  B019               	btfsc	??_DHT11_Check_Response^0,0,c
  3202  00148C  EF4A  F00A         	goto	u1771
  3203  001490  EF4C  F00A         	goto	u1770
  3204  001494                     u1771:
  3205  001494  EF41  F00A         	goto	l3298
  3206  001498                     u1770:
  3207  001498  0012               	return		;funcret
  3208  00149A                     __end_of_DHT11_Check_Response:
  3209                           	callstack 0
  3210                           
  3211 ;; *************** function _TC0INT *****************
  3212 ;; Defined at:
  3213 ;;		line 70 in file "src/main.c"
  3214 ;; Parameters:    Size  Location     Type
  3215 ;;		None
  3216 ;; Auto vars:     Size  Location     Type
  3217 ;;		None
  3218 ;; Return value:  Size  Location     Type
  3219 ;;                  1    wreg      void 
  3220 ;; Registers used:
  3221 ;;		wreg, fsr0l, fsr0h, fsr2l, fsr2h, status,2, status,0, tblptrl, tblptrh, tblptru, cstack
  3222 ;; Tracked objects:
  3223 ;;		On entry : 0/0
  3224 ;;		On exit  : 0/0
  3225 ;;		Unchanged: 0/0
  3226 ;; Data sizes:     COMRAM   BANK0   BANK1   BANK2   BANK3   BANK4   BANK5
  3227 ;;      Params:         0       0       0       0       0       0       0
  3228 ;;      Locals:         0       0       0       0       0       0       0
  3229 ;;      Temps:          9       0       0       0       0       0       0
  3230 ;;      Totals:         9       0       0       0       0       0       0
  3231 ;;Total ram usage:        9 bytes
  3232 ;; Hardware stack levels used: 1
  3233 ;; Hardware stack levels required when called: 2
  3234 ;; This function calls:
  3235 ;;		_User_SetState
  3236 ;;		_tickHook_Execute
  3237 ;;		i2_Display_SendByte
  3238 ;;		i2_Display_WriteString
  3239 ;; This function is called by:
  3240 ;;		Interrupt level 2
  3241 ;; This function uses a non-reentrant model
  3242 ;;
  3243                           
  3244                           	psect	intcode
  3245  000008                     __pintcode:
  3246                           	callstack 0
  3247  000008                     _TC0INT:
  3248                           	callstack 26
  3249                           
  3250                           ;incstack = 0
  3251  000008  8267               	bsf	int$flags,1,c	;set compiler interrupt flag (level 2)
  3252  00000A  EDD8  F005         	call	int_func,f	;refresh shadow registers
  3253                           
  3254                           	psect	intcode_body
  3255  000BB0                     __pintcode_body:
  3256                           	callstack 26
  3257  000BB0                     int_func:
  3258                           	callstack 26
  3259  000BB0  0006               	pop		; remove dummy address from shadow register refresh
  3260  000BB2  CFE9 F011          	movff	fsr0l,??_TC0INT+1
  3261  000BB6  CFEA F012          	movff	fsr0h,??_TC0INT+2
  3262  000BBA  CFD9 F013          	movff	fsr2l,??_TC0INT+3
  3263  000BBE  CFDA F014          	movff	fsr2h,??_TC0INT+4
  3264  000BC2  CFF6 F015          	movff	tblptrl,??_TC0INT+5
  3265  000BC6  CFF7 F016          	movff	tblptrh,??_TC0INT+6
  3266  000BCA  CFF8 F017          	movff	tblptru,??_TC0INT+7
  3267  000BCE  CFF5 F018          	movff	tablat,??_TC0INT+8
  3268  000BD2                     
  3269                           ;src/main.c: 74:     if (INTCONbits.TMR0IF == 0x01) {
  3270  000BD2  A4F2               	btfss	242,2,c	;volatile
  3271  000BD4  EFEE  F005         	goto	i2u137_41
  3272  000BD8  EFF0  F005         	goto	i2u137_40
  3273  000BDC                     i2u137_41:
  3274  000BDC  EFFB  F005         	goto	i2l2762
  3275  000BE0                     i2u137_40:
  3276  000BE0                     
  3277                           ;src/main.c: 76:         tickHook_Execute(&global_timer_value);
  3278  000BE0  0E5A               	movlw	low _global_timer_value
  3279  000BE2  6E01               	movwf	tickHook_Execute@global_timer_value^0,c
  3280  000BE4  0E00               	movlw	high _global_timer_value
  3281  000BE6  6E02               	movwf	(tickHook_Execute@global_timer_value+1)^0,c
  3282  000BE8  ECB8  F00A         	call	_tickHook_Execute	;wreg free
  3283  000BEC                     
  3284                           ;src/main.c: 78:         TMR0 = 0xFB1E;
  3285  000BEC  0EFB               	movlw	251
  3286  000BEE  6ED7               	movwf	215,c	;volatile
  3287  000BF0  0E1E               	movlw	30
  3288  000BF2  6ED6               	movwf	214,c	;volatile
  3289  000BF4                     
  3290                           ;src/main.c: 79:         INTCONbits.T0IF = 0x00;
  3291  000BF4  94F2               	bcf	242,2,c	;volatile
  3292  000BF6                     i2l2762:
  3293                           
  3294                           ;src/main.c: 83:     if (PIR1bits.RCIF) {
  3295  000BF6  AA9E               	btfss	158,5,c	;volatile
  3296  000BF8  EF00  F006         	goto	i2u138_41
  3297  000BFC  EF02  F006         	goto	i2u138_40
  3298  000C00                     i2u138_41:
  3299  000C00  EF64  F006         	goto	i2l94
  3300  000C04                     i2u138_40:
  3301  000C04                     
  3302                           ;src/main.c: 84:         byteReceived = RCREG;
  3303  000C04  CFAE F03D          	movff	4014,_byteReceived	;volatile
  3304  000C08                     
  3305                           ;src/main.c: 87:         if (firstReceive <= 0x04) {
  3306  000C08  0E05               	movlw	5
  3307  000C0A  603C               	cpfslt	_firstReceive^0,c
  3308  000C0C  EF0A  F006         	goto	i2u139_41
  3309  000C10  EF0C  F006         	goto	i2u139_40
  3310  000C14                     i2u139_41:
  3311  000C14  EF0F  F006         	goto	i2l2770
  3312  000C18                     i2u139_40:
  3313  000C18                     
  3314                           ;src/main.c: 88:             firstReceive++;
  3315  000C18  2A3C               	incf	_firstReceive^0,f,c
  3316                           
  3317                           ;src/main.c: 89:         } else {
  3318  000C1A  EF63  F006         	goto	i2l2798
  3319  000C1E                     i2l2770:
  3320                           
  3321                           ;src/main.c: 90:             if (byteReceived != 0x3E) {
  3322  000C1E  0E3E               	movlw	62
  3323  000C20  183D               	xorwf	_byteReceived^0,w,c
  3324  000C22  B4D8               	btfsc	status,2,c
  3325  000C24  EF16  F006         	goto	i2u140_41
  3326  000C28  EF18  F006         	goto	i2u140_40
  3327  000C2C                     i2u140_41:
  3328  000C2C  EF23  F006         	goto	i2l2776
  3329  000C30                     i2u140_40:
  3330  000C30                     
  3331                           ;src/main.c: 91:                 vector[i] = byteReceived;
  3332  000C30  0E42               	movlw	low _vector
  3333  000C32  243E               	addwf	_i^0,w,c
  3334  000C34  6ED9               	movwf	fsr2l,c
  3335  000C36  6ADA               	clrf	fsr2h,c
  3336  000C38  0E00               	movlw	high _vector
  3337  000C3A  22DA               	addwfc	fsr2h,f,c
  3338  000C3C  C03D  FFDF         	movff	_byteReceived,indf2
  3339  000C40                     
  3340                           ;src/main.c: 92:                 i++;
  3341  000C40  2A3E               	incf	_i^0,f,c
  3342                           
  3343                           ;src/main.c: 93:             } else {
  3344  000C42  EF63  F006         	goto	i2l2798
  3345  000C46                     i2l2776:
  3346                           
  3347                           ;src/main.c: 94:                 vector[i] = byteReceived;
  3348  000C46  0E42               	movlw	low _vector
  3349  000C48  243E               	addwf	_i^0,w,c
  3350  000C4A  6ED9               	movwf	fsr2l,c
  3351  000C4C  6ADA               	clrf	fsr2h,c
  3352  000C4E  0E00               	movlw	high _vector
  3353  000C50  22DA               	addwfc	fsr2h,f,c
  3354  000C52  C03D  FFDF         	movff	_byteReceived,indf2
  3355  000C56                     
  3356                           ;src/main.c: 95:                 Display_SendByte(0b00000001, 0);
  3357  000C56  0E00               	movlw	0
  3358  000C58  6E01               	movwf	i2Display_SendByte@comm^0,c
  3359  000C5A  0E01               	movlw	1
  3360  000C5C  EC50  F008         	call	i2_Display_SendByte
  3361  000C60                     
  3362                           ;src/main.c: 96:                 _delay((unsigned long)((5)*(12000000UL/4000.0)));
  3363  000C60  0E14               	movlw	20
  3364  000C62  6E10               	movwf	??_TC0INT^0,c
  3365  000C64  0E7A               	movlw	122
  3366  000C66                     i2u233_47:
  3367  000C66  2EE8               	decfsz	wreg,f,c
  3368  000C68  D7FE               	bra	i2u233_47
  3369  000C6A  2E10               	decfsz	??_TC0INT^0,f,c
  3370  000C6C  D7FC               	bra	i2u233_47
  3371  000C6E                     
  3372                           ;src/main.c: 97:                 Display_WriteString(vector, sizeof (vector) + 1, 0);
  3373  000C6E  0E42               	movlw	low _vector
  3374  000C70  6E04               	movwf	i2Display_WriteString@string^0,c
  3375  000C72  0E00               	movlw	high _vector
  3376  000C74  6E05               	movwf	(i2Display_WriteString@string+1)^0,c
  3377  000C76  0E04               	movlw	4
  3378  000C78  6E06               	movwf	i2Display_WriteString@length^0,c
  3379  000C7A  0E00               	movlw	0
  3380  000C7C  6E07               	movwf	i2Display_WriteString@address^0,c
  3381  000C7E  EC8E  F008         	call	i2_Display_WriteString	;wreg free
  3382  000C82                     
  3383                           ;src/main.c: 99:                 if (vector[1] == 0x43) {
  3384  000C82  0E43               	movlw	67
  3385  000C84  1843               	xorwf	(_vector+1)^0,w,c	;volatile
  3386  000C86  A4D8               	btfss	status,2,c
  3387  000C88  EF48  F006         	goto	i2u141_41
  3388  000C8C  EF4A  F006         	goto	i2u141_40
  3389  000C90                     i2u141_41:
  3390  000C90  EF52  F006         	goto	i2l2790
  3391  000C94                     i2u141_40:
  3392  000C94                     
  3393                           ;src/main.c: 100:                     User_SetState(1);
  3394  000C94  0E01               	movlw	1
  3395  000C96  ECB4  F00A         	call	_User_SetState
  3396  000C9A                     
  3397                           ;src/main.c: 101:                     LATB = (PORTB ^ (1 << 0));;
  3398  000C9A  5081               	movf	129,w,c	;volatile
  3399  000C9C  0A01               	xorlw	1
  3400  000C9E  6E8A               	movwf	138,c	;volatile
  3401                           
  3402                           ;src/main.c: 102:                 } else if (vector[1] == 0x44) {
  3403  000CA0  EF61  F006         	goto	i2l2796
  3404  000CA4                     i2l2790:
  3405  000CA4  0E44               	movlw	68
  3406  000CA6  1843               	xorwf	(_vector+1)^0,w,c	;volatile
  3407  000CA8  A4D8               	btfss	status,2,c
  3408  000CAA  EF59  F006         	goto	i2u142_41
  3409  000CAE  EF5B  F006         	goto	i2u142_40
  3410  000CB2                     i2u142_41:
  3411  000CB2  EF61  F006         	goto	i2l2796
  3412  000CB6                     i2u142_40:
  3413  000CB6                     
  3414                           ;src/main.c: 103:                     User_SetState(0);
  3415  000CB6  0E00               	movlw	0
  3416  000CB8  ECB4  F00A         	call	_User_SetState
  3417  000CBC                     
  3418                           ;src/main.c: 104:                     LATB = (PORTB ^ (1 << 1));;
  3419  000CBC  5081               	movf	129,w,c	;volatile
  3420  000CBE  0A02               	xorlw	2
  3421  000CC0  6E8A               	movwf	138,c	;volatile
  3422  000CC2                     i2l2796:
  3423                           
  3424                           ;src/main.c: 107:                 i = 0;
  3425  000CC2  0E00               	movlw	0
  3426  000CC4  6E3E               	movwf	_i^0,c
  3427  000CC6                     i2l2798:
  3428                           
  3429                           ;src/main.c: 123:         PIR1bits.RCIF = 0x00;
  3430  000CC6  9A9E               	bcf	158,5,c	;volatile
  3431  000CC8                     i2l94:
  3432  000CC8  C018  FFF5         	movff	??_TC0INT+8,tablat
  3433  000CCC  C017  FFF8         	movff	??_TC0INT+7,tblptru
  3434  000CD0  C016  FFF7         	movff	??_TC0INT+6,tblptrh
  3435  000CD4  C015  FFF6         	movff	??_TC0INT+5,tblptrl
  3436  000CD8  C014  FFDA         	movff	??_TC0INT+4,fsr2h
  3437  000CDC  C013  FFD9         	movff	??_TC0INT+3,fsr2l
  3438  000CE0  C012  FFEA         	movff	??_TC0INT+2,fsr0h
  3439  000CE4  C011  FFE9         	movff	??_TC0INT+1,fsr0l
  3440  000CE8  9267               	bcf	int$flags,1,c	;clear compiler interrupt flag (level 2)
  3441  000CEA  0011               	retfie		f
  3442  000CEC                     __end_of_TC0INT:
  3443                           	callstack 0
  3444                           
  3445 ;; *************** function i2_Display_WriteString *****************
  3446 ;; Defined at:
  3447 ;;		line 109 in file "src/app/display_lcd/display_lcd.c"
  3448 ;; Parameters:    Size  Location     Type
  3449 ;;  string          2    3[COMRAM] PTR unsigned char 
  3450 ;;		 -> STR_15(10), STR_14(7), STR_13(8), STR_11(12), 
  3451 ;;		 -> vetorHum(7), vetorTemp(6), main_application@auxText(15), STR_3(8), 
  3452 ;;		 -> STR_2(8), STR_1(5), vector(3), 
  3453 ;;  length          1    5[COMRAM] unsigned char 
  3454 ;;  address         1    6[COMRAM] unsigned char 
  3455 ;; Auto vars:     Size  Location     Type
  3456 ;;  auxLength       1   14[COMRAM] unsigned char 
  3457 ;; Return value:  Size  Location     Type
  3458 ;;                  1    wreg      void 
  3459 ;; Registers used:
  3460 ;;		wreg, fsr0l, fsr0h, status,2, status,0, tblptrl, tblptrh, tblptru, cstack
  3461 ;; Tracked objects:
  3462 ;;		On entry : 0/0
  3463 ;;		On exit  : 0/0
  3464 ;;		Unchanged: 0/0
  3465 ;; Data sizes:     COMRAM   BANK0   BANK1   BANK2   BANK3   BANK4   BANK5
  3466 ;;      Params:         4       0       0       0       0       0       0
  3467 ;;      Locals:         1       0       0       0       0       0       0
  3468 ;;      Temps:          7       0       0       0       0       0       0
  3469 ;;      Totals:        12       0       0       0       0       0       0
  3470 ;;Total ram usage:       12 bytes
  3471 ;; Hardware stack levels used: 1
  3472 ;; Hardware stack levels required when called: 1
  3473 ;; This function calls:
  3474 ;;		i2_Display_WriteByte
  3475 ;; This function is called by:
  3476 ;;		_TC0INT
  3477 ;; This function uses a non-reentrant model
  3478 ;;
  3479                           
  3480                           	psect	text18
  3481  00111C                     __ptext18:
  3482                           	callstack 0
  3483  00111C                     i2_Display_WriteString:
  3484                           	callstack 26
  3485  00111C                     
  3486                           ;src/app/display_lcd/display_lcd.c: 109: void Display_WriteString(char* string, uint8_t 
      +                          length, uint8_t address);src/app/display_lcd/display_lcd.c: 110: {;src/app/display_lcd/d
      +                          isplay_lcd.c: 111:     uint8_t auxLength = 0x00;
  3487  00111C  0E00               	movlw	0
  3488  00111E  6E0F               	movwf	i2Display_WriteString@auxLength^0,c
  3489                           
  3490                           ;src/app/display_lcd/display_lcd.c: 114:     for(auxLength = 0; auxLength < length - 1; 
      +                          auxLength++)
  3491  001120  0E00               	movlw	0
  3492  001122  6E0F               	movwf	i2Display_WriteString@auxLength^0,c
  3493  001124  EFAD  F008         	goto	i2l2746
  3494  001128                     i2l2742:
  3495                           
  3496                           ;src/app/display_lcd/display_lcd.c: 115:     {;src/app/display_lcd/display_lcd.c: 116:  
      +                                 Display_WriteByte((uint8_t)string[auxLength]);
  3497  001128  500F               	movf	i2Display_WriteString@auxLength^0,w,c
  3498  00112A  2404               	addwf	i2Display_WriteString@string^0,w,c
  3499  00112C  6E08               	movwf	??i2_Display_WriteString^0,c
  3500  00112E  0E00               	movlw	0
  3501  001130  2005               	addwfc	(i2Display_WriteString@string+1)^0,w,c
  3502  001132  6E09               	movwf	(??i2_Display_WriteString+1)^0,c
  3503  001134  C008  FFF6         	movff	??i2_Display_WriteString,tblptrl
  3504  001138  C009  FFF7         	movff	??i2_Display_WriteString+1,tblptrh
  3505  00113C  6AF8               	clrf	tblptru,c
  3506  00113E  0E05               	movlw	(high __ramtop+-1)
  3507  001140  64F7               	cpfsgt	tblptrh,c
  3508  001142  D003               	bra	i2u134_47
  3509  001144  0008               	tblrd		*
  3510  001146  50F5               	movf	tablat,w,c
  3511  001148  D005               	bra	i2u134_40
  3512  00114A                     i2u134_47:
  3513  00114A  CFF6 FFE9          	movff	tblptrl,fsr0l
  3514  00114E  CFF7 FFEA          	movff	tblptrh,fsr0h
  3515  001152  50EF               	movf	indf0,w,c
  3516  001154                     i2u134_40:
  3517  001154  EC9C  F009         	call	i2_Display_WriteByte
  3518  001158                     
  3519                           ;src/app/display_lcd/display_lcd.c: 117:     }
  3520  001158  2A0F               	incf	i2Display_WriteString@auxLength^0,f,c
  3521  00115A                     i2l2746:
  3522  00115A  0EFF               	movlw	255
  3523  00115C  6E08               	movwf	??i2_Display_WriteString^0,c
  3524  00115E  0EFF               	movlw	255
  3525  001160  6E09               	movwf	(??i2_Display_WriteString+1)^0,c
  3526  001162  5006               	movf	i2Display_WriteString@length^0,w,c
  3527  001164  6E0A               	movwf	(??i2_Display_WriteString+2)^0,c
  3528  001166  6A0B               	clrf	(??i2_Display_WriteString+3)^0,c
  3529  001168  5008               	movf	??i2_Display_WriteString^0,w,c
  3530  00116A  260A               	addwf	(??i2_Display_WriteString+2)^0,f,c
  3531  00116C  5009               	movf	(??i2_Display_WriteString+1)^0,w,c
  3532  00116E  220B               	addwfc	(??i2_Display_WriteString+3)^0,f,c
  3533  001170  500F               	movf	i2Display_WriteString@auxLength^0,w,c
  3534  001172  6E0C               	movwf	(??i2_Display_WriteString+4)^0,c
  3535  001174  6A0D               	clrf	(??i2_Display_WriteString+5)^0,c
  3536  001176  500A               	movf	(??i2_Display_WriteString+2)^0,w,c
  3537  001178  5C0C               	subwf	(??i2_Display_WriteString+4)^0,w,c
  3538  00117A  500D               	movf	(??i2_Display_WriteString+5)^0,w,c
  3539  00117C  0A80               	xorlw	128
  3540  00117E  6E0E               	movwf	(??i2_Display_WriteString+6)^0,c
  3541  001180  500B               	movf	(??i2_Display_WriteString+3)^0,w,c
  3542  001182  0A80               	xorlw	128
  3543  001184  580E               	subwfb	(??i2_Display_WriteString+6)^0,w,c
  3544  001186  A0D8               	btfss	status,0,c
  3545  001188  EFC8  F008         	goto	i2u135_41
  3546  00118C  EFCA  F008         	goto	i2u135_40
  3547  001190                     i2u135_41:
  3548  001190  EF94  F008         	goto	i2l2742
  3549  001194                     i2u135_40:
  3550  001194  0012               	return		;funcret
  3551  001196                     __end_ofi2_Display_WriteString:
  3552                           	callstack 0
  3553                           
  3554 ;; *************** function i2_Display_WriteByte *****************
  3555 ;; Defined at:
  3556 ;;		line 84 in file "src/app/display_lcd/display_lcd.c"
  3557 ;; Parameters:    Size  Location     Type
  3558 ;;  byte            1    wreg     unsigned char 
  3559 ;; Auto vars:     Size  Location     Type
  3560 ;;  byte            1    1[COMRAM] unsigned char 
  3561 ;;  auxByte         1    2[COMRAM] unsigned char 
  3562 ;; Return value:  Size  Location     Type
  3563 ;;                  1    wreg      void 
  3564 ;; Registers used:
  3565 ;;		wreg, status,2, status,0
  3566 ;; Tracked objects:
  3567 ;;		On entry : 0/0
  3568 ;;		On exit  : 0/0
  3569 ;;		Unchanged: 0/0
  3570 ;; Data sizes:     COMRAM   BANK0   BANK1   BANK2   BANK3   BANK4   BANK5
  3571 ;;      Params:         0       0       0       0       0       0       0
  3572 ;;      Locals:         2       0       0       0       0       0       0
  3573 ;;      Temps:          1       0       0       0       0       0       0
  3574 ;;      Totals:         3       0       0       0       0       0       0
  3575 ;;Total ram usage:        3 bytes
  3576 ;; Hardware stack levels used: 1
  3577 ;; This function calls:
  3578 ;;		Nothing
  3579 ;; This function is called by:
  3580 ;;		i2_Display_WriteString
  3581 ;; This function uses a non-reentrant model
  3582 ;;
  3583                           
  3584                           	psect	text19
  3585  001338                     __ptext19:
  3586                           	callstack 0
  3587  001338                     i2_Display_WriteByte:
  3588                           	callstack 26
  3589                           
  3590                           ;incstack = 0
  3591                           ;i2Display_WriteByte@byte stored from wreg
  3592  001338  6E02               	movwf	i2Display_WriteByte@byte^0,c
  3593  00133A  5081               	movf	129,w,c	;volatile
  3594  00133C  0908               	iorlw	8
  3595  00133E  6E8A               	movwf	138,c	;volatile
  3596  001340                     
  3597                           ;src/app/display_lcd/display_lcd.c: 89:     auxByte = (byte & 0xF0);
  3598  001340  5002               	movf	i2Display_WriteByte@byte^0,w,c
  3599  001342  0BF0               	andlw	240
  3600  001344  6E03               	movwf	i2Display_WriteByte@auxByte^0,c
  3601                           
  3602                           ;src/app/display_lcd/display_lcd.c: 90:     LATB = ((PORTB & 0x0F) | auxByte);;
  3603  001346  5081               	movf	129,w,c	;volatile
  3604  001348  0B0F               	andlw	15
  3605  00134A  1003               	iorwf	i2Display_WriteByte@auxByte^0,w,c
  3606  00134C  6E8A               	movwf	138,c	;volatile
  3607  00134E  5081               	movf	129,w,c	;volatile
  3608  001350  0BFB               	andlw	251
  3609  001352  6E8A               	movwf	138,c	;volatile
  3610  001354  5081               	movf	129,w,c	;volatile
  3611  001356  0904               	iorlw	4
  3612  001358  6E8A               	movwf	138,c	;volatile
  3613  00135A                     
  3614                           ;src/app/display_lcd/display_lcd.c: 94:     _delay((unsigned long)((100)*(12000000UL/400
      +                          0000.0)));
  3615  00135A  0E64               	movlw	100
  3616  00135C                     i2u234_47:
  3617  00135C  2EE8               	decfsz	wreg,f,c
  3618  00135E  D7FE               	bra	i2u234_47
  3619  001360  5081               	movf	129,w,c	;volatile
  3620  001362  0BFB               	andlw	251
  3621  001364  6E8A               	movwf	138,c	;volatile
  3622  001366                     
  3623                           ;src/app/display_lcd/display_lcd.c: 98:     auxByte = (byte << 0x04);
  3624  001366  3802               	swapf	i2Display_WriteByte@byte^0,w,c
  3625  001368  0BF0               	andlw	240
  3626  00136A  6E03               	movwf	i2Display_WriteByte@auxByte^0,c
  3627                           
  3628                           ;src/app/display_lcd/display_lcd.c: 99:     LATB = ((PORTB & 0x0F) | auxByte);;
  3629  00136C  5081               	movf	129,w,c	;volatile
  3630  00136E  0B0F               	andlw	15
  3631  001370  1003               	iorwf	i2Display_WriteByte@auxByte^0,w,c
  3632  001372  6E8A               	movwf	138,c	;volatile
  3633  001374  5081               	movf	129,w,c	;volatile
  3634  001376  0BFB               	andlw	251
  3635  001378  6E8A               	movwf	138,c	;volatile
  3636  00137A  5081               	movf	129,w,c	;volatile
  3637  00137C  0904               	iorlw	4
  3638  00137E  6E8A               	movwf	138,c	;volatile
  3639  001380                     
  3640                           ;src/app/display_lcd/display_lcd.c: 103:     _delay((unsigned long)((100)*(12000000UL/40
      +                          00000.0)));
  3641  001380  0E64               	movlw	100
  3642  001382                     i2u235_47:
  3643  001382  2EE8               	decfsz	wreg,f,c
  3644  001384  D7FE               	bra	i2u235_47
  3645  001386  5081               	movf	129,w,c	;volatile
  3646  001388  0BFB               	andlw	251
  3647  00138A  6E8A               	movwf	138,c	;volatile
  3648  00138C                     
  3649                           ;src/app/display_lcd/display_lcd.c: 106:     _delay((unsigned long)((2)*(12000000UL/4000
      +                          .0)));
  3650  00138C  0E08               	movlw	8
  3651  00138E  6E01               	movwf	??i2_Display_WriteByte^0,c
  3652  001390  0ECA               	movlw	202
  3653  001392                     i2u236_47:
  3654  001392  2EE8               	decfsz	wreg,f,c
  3655  001394  D7FE               	bra	i2u236_47
  3656  001396  2E01               	decfsz	??i2_Display_WriteByte^0,f,c
  3657  001398  D7FC               	bra	i2u236_47
  3658  00139A  0012               	return		;funcret
  3659  00139C                     __end_ofi2_Display_WriteByte:
  3660                           	callstack 0
  3661                           
  3662 ;; *************** function i2_Display_SendByte *****************
  3663 ;; Defined at:
  3664 ;;		line 57 in file "src/app/display_lcd/display_lcd.c"
  3665 ;; Parameters:    Size  Location     Type
  3666 ;;  byte            1    wreg     unsigned char 
  3667 ;;  comm            1    0[COMRAM] unsigned char 
  3668 ;; Auto vars:     Size  Location     Type
  3669 ;;  byte            1    2[COMRAM] unsigned char 
  3670 ;;  auxByte         1    3[COMRAM] unsigned char 
  3671 ;; Return value:  Size  Location     Type
  3672 ;;                  1    wreg      void 
  3673 ;; Registers used:
  3674 ;;		wreg, status,2, status,0
  3675 ;; Tracked objects:
  3676 ;;		On entry : 0/0
  3677 ;;		On exit  : 0/0
  3678 ;;		Unchanged: 0/0
  3679 ;; Data sizes:     COMRAM   BANK0   BANK1   BANK2   BANK3   BANK4   BANK5
  3680 ;;      Params:         1       0       0       0       0       0       0
  3681 ;;      Locals:         2       0       0       0       0       0       0
  3682 ;;      Temps:          1       0       0       0       0       0       0
  3683 ;;      Totals:         4       0       0       0       0       0       0
  3684 ;;Total ram usage:        4 bytes
  3685 ;; Hardware stack levels used: 1
  3686 ;; This function calls:
  3687 ;;		Nothing
  3688 ;; This function is called by:
  3689 ;;		_TC0INT
  3690 ;; This function uses a non-reentrant model
  3691 ;;
  3692                           
  3693                           	psect	text20
  3694  0010A0                     __ptext20:
  3695                           	callstack 0
  3696  0010A0                     i2_Display_SendByte:
  3697                           	callstack 27
  3698                           
  3699                           ;incstack = 0
  3700                           ;i2Display_SendByte@byte stored from wreg
  3701  0010A0  6E03               	movwf	i2Display_SendByte@byte^0,c
  3702  0010A2                     
  3703                           ;src/app/display_lcd/display_lcd.c: 61:     if(comm == 0x01) LATB = (PORTB | (1 << 3)); 
      +                          else LATB = (PORTB & ~((1 << 3)));;
  3704  0010A2  0401               	decf	i2Display_SendByte@comm^0,w,c
  3705  0010A4  A4D8               	btfss	status,2,c
  3706  0010A6  EF57  F008         	goto	i2u133_41
  3707  0010AA  EF59  F008         	goto	i2u133_40
  3708  0010AE                     i2u133_41:
  3709  0010AE  EF5E  F008         	goto	i2l2710
  3710  0010B2                     i2u133_40:
  3711  0010B2  5081               	movf	129,w,c	;volatile
  3712  0010B4  0908               	iorlw	8
  3713  0010B6  6E8A               	movwf	138,c	;volatile
  3714  0010B8  EF61  F008         	goto	i2l280
  3715  0010BC                     i2l2710:
  3716  0010BC  5081               	movf	129,w,c	;volatile
  3717  0010BE  0BF7               	andlw	247
  3718  0010C0  6E8A               	movwf	138,c	;volatile
  3719  0010C2                     i2l280:
  3720                           
  3721                           ;src/app/display_lcd/display_lcd.c: 63:     auxByte = (byte & 0xF0);
  3722  0010C2  5003               	movf	i2Display_SendByte@byte^0,w,c
  3723  0010C4  0BF0               	andlw	240
  3724  0010C6  6E04               	movwf	i2Display_SendByte@auxByte^0,c
  3725                           
  3726                           ;src/app/display_lcd/display_lcd.c: 65:     LATB = ((PORTB & 0x0F) | auxByte);;
  3727  0010C8  5081               	movf	129,w,c	;volatile
  3728  0010CA  0B0F               	andlw	15
  3729  0010CC  1004               	iorwf	i2Display_SendByte@auxByte^0,w,c
  3730  0010CE  6E8A               	movwf	138,c	;volatile
  3731  0010D0  5081               	movf	129,w,c	;volatile
  3732  0010D2  0BFB               	andlw	251
  3733  0010D4  6E8A               	movwf	138,c	;volatile
  3734  0010D6  5081               	movf	129,w,c	;volatile
  3735  0010D8  0904               	iorlw	4
  3736  0010DA  6E8A               	movwf	138,c	;volatile
  3737  0010DC                     
  3738                           ;src/app/display_lcd/display_lcd.c: 69:     _delay((unsigned long)((100)*(12000000UL/400
      +                          0000.0)));
  3739  0010DC  0E64               	movlw	100
  3740  0010DE                     i2u237_47:
  3741  0010DE  2EE8               	decfsz	wreg,f,c
  3742  0010E0  D7FE               	bra	i2u237_47
  3743  0010E2  5081               	movf	129,w,c	;volatile
  3744  0010E4  0BFB               	andlw	251
  3745  0010E6  6E8A               	movwf	138,c	;volatile
  3746  0010E8                     
  3747                           ;src/app/display_lcd/display_lcd.c: 72:     auxByte = (byte << 0x04);
  3748  0010E8  3803               	swapf	i2Display_SendByte@byte^0,w,c
  3749  0010EA  0BF0               	andlw	240
  3750  0010EC  6E04               	movwf	i2Display_SendByte@auxByte^0,c
  3751  0010EE                     
  3752                           ;src/app/display_lcd/display_lcd.c: 74:     LATB = auxByte;;
  3753  0010EE  C004  FF8A         	movff	i2Display_SendByte@auxByte,3978	;volatile
  3754  0010F2  5081               	movf	129,w,c	;volatile
  3755  0010F4  0BFB               	andlw	251
  3756  0010F6  6E8A               	movwf	138,c	;volatile
  3757  0010F8  5081               	movf	129,w,c	;volatile
  3758  0010FA  0904               	iorlw	4
  3759  0010FC  6E8A               	movwf	138,c	;volatile
  3760  0010FE                     
  3761                           ;src/app/display_lcd/display_lcd.c: 78:     _delay((unsigned long)((100)*(12000000UL/400
      +                          0000.0)));
  3762  0010FE  0E64               	movlw	100
  3763  001100                     i2u238_47:
  3764  001100  2EE8               	decfsz	wreg,f,c
  3765  001102  D7FE               	bra	i2u238_47
  3766  001104  5081               	movf	129,w,c	;volatile
  3767  001106  0BFB               	andlw	251
  3768  001108  6E8A               	movwf	138,c	;volatile
  3769  00110A                     
  3770                           ;src/app/display_lcd/display_lcd.c: 81:     _delay((unsigned long)((1)*(12000000UL/4000.
      +                          0)));
  3771  00110A  0E04               	movlw	4
  3772  00110C  6E02               	movwf	??i2_Display_SendByte^0,c
  3773  00110E  0EE4               	movlw	228
  3774  001110                     i2u239_47:
  3775  001110  2EE8               	decfsz	wreg,f,c
  3776  001112  D7FE               	bra	i2u239_47
  3777  001114  2E02               	decfsz	??i2_Display_SendByte^0,f,c
  3778  001116  D7FC               	bra	i2u239_47
  3779  001118  D000               	nop2	
  3780  00111A  0012               	return		;funcret
  3781  00111C                     __end_ofi2_Display_SendByte:
  3782                           	callstack 0
  3783                           
  3784 ;; *************** function _tickHook_Execute *****************
  3785 ;; Defined at:
  3786 ;;		line 89 in file "src/pic18f4520/timer/timer.c"
  3787 ;; Parameters:    Size  Location     Type
  3788 ;;  global_timer    2    0[COMRAM] PTR unsigned long 
  3789 ;;		 -> global_timer_value(4), 
  3790 ;; Auto vars:     Size  Location     Type
  3791 ;;		None
  3792 ;; Return value:  Size  Location     Type
  3793 ;;                  1    wreg      void 
  3794 ;; Registers used:
  3795 ;;		wreg, status,2, status,0
  3796 ;; Tracked objects:
  3797 ;;		On entry : 0/0
  3798 ;;		On exit  : 0/0
  3799 ;;		Unchanged: 0/0
  3800 ;; Data sizes:     COMRAM   BANK0   BANK1   BANK2   BANK3   BANK4   BANK5
  3801 ;;      Params:         2       0       0       0       0       0       0
  3802 ;;      Locals:         0       0       0       0       0       0       0
  3803 ;;      Temps:          0       0       0       0       0       0       0
  3804 ;;      Totals:         2       0       0       0       0       0       0
  3805 ;;Total ram usage:        2 bytes
  3806 ;; Hardware stack levels used: 1
  3807 ;; This function calls:
  3808 ;;		Nothing
  3809 ;; This function is called by:
  3810 ;;		_TC0INT
  3811 ;; This function uses a non-reentrant model
  3812 ;;
  3813                           
  3814                           	psect	text21
  3815  001570                     __ptext21:
  3816                           	callstack 0
  3817  001570                     _tickHook_Execute:
  3818                           	callstack 27
  3819  001570  0012               	return		;funcret
  3820  001572                     __end_of_tickHook_Execute:
  3821                           	callstack 0
  3822                           
  3823 ;; *************** function _User_SetState *****************
  3824 ;; Defined at:
  3825 ;;		line 76 in file "src/app/bluetooth-hc-06/bluetooth_hc_06.c"
  3826 ;; Parameters:    Size  Location     Type
  3827 ;;  state           1    wreg     _Bool 
  3828 ;; Auto vars:     Size  Location     Type
  3829 ;;  state           1    0[COMRAM] _Bool 
  3830 ;; Return value:  Size  Location     Type
  3831 ;;                  1    wreg      _Bool 
  3832 ;; Registers used:
  3833 ;;		wreg
  3834 ;; Tracked objects:
  3835 ;;		On entry : 0/0
  3836 ;;		On exit  : 0/0
  3837 ;;		Unchanged: 0/0
  3838 ;; Data sizes:     COMRAM   BANK0   BANK1   BANK2   BANK3   BANK4   BANK5
  3839 ;;      Params:         0       0       0       0       0       0       0
  3840 ;;      Locals:         1       0       0       0       0       0       0
  3841 ;;      Temps:          0       0       0       0       0       0       0
  3842 ;;      Totals:         1       0       0       0       0       0       0
  3843 ;;Total ram usage:        1 bytes
  3844 ;; Hardware stack levels used: 1
  3845 ;; This function calls:
  3846 ;;		Nothing
  3847 ;; This function is called by:
  3848 ;;		_TC0INT
  3849 ;; This function uses a non-reentrant model
  3850 ;;
  3851                           
  3852                           	psect	text22
  3853  001568                     __ptext22:
  3854                           	callstack 0
  3855  001568                     _User_SetState:
  3856                           	callstack 27
  3857                           
  3858                           ;incstack = 0
  3859                           ;User_SetState@state stored from wreg
  3860  001568  6E01               	movwf	User_SetState@state^0,c
  3861  00156A                     
  3862                           ;src/app/bluetooth-hc-06/bluetooth_hc_06.c: 76: _Bool User_SetState( _Bool state );src/a
      +                          pp/bluetooth-hc-06/bluetooth_hc_06.c: 77: {;src/app/bluetooth-hc-06/bluetooth_hc_06.c: 7
      +                          8:     UserConnected = state;
  3863  00156A  C001  F03B         	movff	User_SetState@state,_UserConnected
  3864  00156E  0012               	return		;funcret
  3865  001570                     __end_of_User_SetState:
  3866                           	callstack 0
  3867                           
  3868                           	psect	rparam
  3869  0000                     
  3870                           	psect	temp
  3871  000067                     btemp:
  3872                           	callstack 0
  3873  000067                     	ds	1
  3874  0000                     int$flags	set	btemp
  3875  0000                     wtemp8	set	btemp+1
  3876  0000                     ttemp5	set	btemp+1
  3877  0000                     ttemp6	set	btemp+4
  3878  0000                     ttemp7	set	btemp+8
  3879                           
  3880                           	psect	idloc
  3881                           
  3882                           ;Config register IDLOC0 @ 0x200000
  3883                           ;	unspecified, using default values
  3884  200000                     	org	2097152
  3885  200000  FF                 	db	255
  3886                           
  3887                           ;Config register IDLOC1 @ 0x200001
  3888                           ;	unspecified, using default values
  3889  200001                     	org	2097153
  3890  200001  FF                 	db	255
  3891                           
  3892                           ;Config register IDLOC2 @ 0x200002
  3893                           ;	unspecified, using default values
  3894  200002                     	org	2097154
  3895  200002  FF                 	db	255
  3896                           
  3897                           ;Config register IDLOC3 @ 0x200003
  3898                           ;	unspecified, using default values
  3899  200003                     	org	2097155
  3900  200003  FF                 	db	255
  3901                           
  3902                           ;Config register IDLOC4 @ 0x200004
  3903                           ;	unspecified, using default values
  3904  200004                     	org	2097156
  3905  200004  FF                 	db	255
  3906                           
  3907                           ;Config register IDLOC5 @ 0x200005
  3908                           ;	unspecified, using default values
  3909  200005                     	org	2097157
  3910  200005  FF                 	db	255
  3911                           
  3912                           ;Config register IDLOC6 @ 0x200006
  3913                           ;	unspecified, using default values
  3914  200006                     	org	2097158
  3915  200006  FF                 	db	255
  3916                           
  3917                           ;Config register IDLOC7 @ 0x200007
  3918                           ;	unspecified, using default values
  3919  200007                     	org	2097159
  3920  200007  FF                 	db	255
  3921                           
  3922                           	psect	config
  3923                           
  3924                           ; Padding undefined space
  3925  300000                     	org	3145728
  3926  300000  FF                 	db	255
  3927                           
  3928                           ;Config register CONFIG1H @ 0x300001
  3929                           ;	Oscillator Selection bits
  3930                           ;	OSC = HS, HS oscillator
  3931                           ;	Fail-Safe Clock Monitor Enable bit
  3932                           ;	FCMEN = OFF, Fail-Safe Clock Monitor disabled
  3933                           ;	Internal/External Oscillator Switchover bit
  3934                           ;	IESO = OFF, Oscillator Switchover mode disabled
  3935  300001                     	org	3145729
  3936  300001  02                 	db	2
  3937                           
  3938                           ;Config register CONFIG2L @ 0x300002
  3939                           ;	Power-up Timer Enable bit
  3940                           ;	PWRT = OFF, PWRT disabled
  3941                           ;	Brown-out Reset Enable bits
  3942                           ;	BOREN = SBORDIS, Brown-out Reset enabled in hardware only (SBOREN is disabled)
  3943                           ;	Brown Out Reset Voltage bits
  3944                           ;	BORV = 3, Minimum setting
  3945  300002                     	org	3145730
  3946  300002  1F                 	db	31
  3947                           
  3948                           ;Config register CONFIG2H @ 0x300003
  3949                           ;	Watchdog Timer Enable bit
  3950                           ;	WDT = OFF, WDT disabled (control is placed on the SWDTEN bit)
  3951                           ;	Watchdog Timer Postscale Select bits
  3952                           ;	WDTPS = 32768, 1:32768
  3953  300003                     	org	3145731
  3954  300003  1E                 	db	30
  3955                           
  3956                           ; Padding undefined space
  3957  300004                     	org	3145732
  3958  300004  FF                 	db	255
  3959                           
  3960                           ;Config register CONFIG3H @ 0x300005
  3961                           ;	CCP2 MUX bit
  3962                           ;	CCP2MX = PORTC, CCP2 input/output is multiplexed with RC1
  3963                           ;	PORTB A/D Enable bit
  3964                           ;	PBADEN = OFF, PORTB<4:0> pins are configured as digital I/O on Reset
  3965                           ;	Low-Power Timer1 Oscillator Enable bit
  3966                           ;	LPT1OSC = OFF, Timer1 configured for higher power operation
  3967                           ;	MCLR Pin Enable bit
  3968                           ;	MCLRE = ON, MCLR pin enabled; RE3 input pin disabled
  3969  300005                     	org	3145733
  3970  300005  81                 	db	129
  3971                           
  3972                           ;Config register CONFIG4L @ 0x300006
  3973                           ;	Stack Full/Underflow Reset Enable bit
  3974                           ;	STVREN = ON, Stack full/underflow will cause Reset
  3975                           ;	Single-Supply ICSP Enable bit
  3976                           ;	LVP = OFF, Single-Supply ICSP disabled
  3977                           ;	Extended Instruction Set Enable bit
  3978                           ;	XINST = OFF, Instruction set extension and Indexed Addressing mode disabled (Legacy mo
      +                          de)
  3979                           ;	Background Debugger Enable bit
  3980                           ;	DEBUG = 0x1, unprogrammed default
  3981  300006                     	org	3145734
  3982  300006  81                 	db	129
  3983                           
  3984                           ; Padding undefined space
  3985  300007                     	org	3145735
  3986  300007  FF                 	db	255
  3987                           
  3988                           ;Config register CONFIG5L @ 0x300008
  3989                           ;	Code Protection bit
  3990                           ;	CP0 = OFF, Block 0 (000800-001FFFh) not code-protected
  3991                           ;	Code Protection bit
  3992                           ;	CP1 = OFF, Block 1 (002000-003FFFh) not code-protected
  3993                           ;	Code Protection bit
  3994                           ;	CP2 = OFF, Block 2 (004000-005FFFh) not code-protected
  3995                           ;	Code Protection bit
  3996                           ;	CP3 = OFF, Block 3 (006000-007FFFh) not code-protected
  3997  300008                     	org	3145736
  3998  300008  0F                 	db	15
  3999                           
  4000                           ;Config register CONFIG5H @ 0x300009
  4001                           ;	Boot Block Code Protection bit
  4002                           ;	CPB = OFF, Boot block (000000-0007FFh) not code-protected
  4003                           ;	Data EEPROM Code Protection bit
  4004                           ;	CPD = OFF, Data EEPROM not code-protected
  4005  300009                     	org	3145737
  4006  300009  C0                 	db	192
  4007                           
  4008                           ;Config register CONFIG6L @ 0x30000A
  4009                           ;	Write Protection bit
  4010                           ;	WRT0 = OFF, Block 0 (000800-001FFFh) not write-protected
  4011                           ;	Write Protection bit
  4012                           ;	WRT1 = OFF, Block 1 (002000-003FFFh) not write-protected
  4013                           ;	Write Protection bit
  4014                           ;	WRT2 = OFF, Block 2 (004000-005FFFh) not write-protected
  4015                           ;	Write Protection bit
  4016                           ;	WRT3 = OFF, Block 3 (006000-007FFFh) not write-protected
  4017  30000A                     	org	3145738
  4018  30000A  0F                 	db	15
  4019                           
  4020                           ;Config register CONFIG6H @ 0x30000B
  4021                           ;	Configuration Register Write Protection bit
  4022                           ;	WRTC = OFF, Configuration registers (300000-3000FFh) not write-protected
  4023                           ;	Boot Block Write Protection bit
  4024                           ;	WRTB = OFF, Boot block (000000-0007FFh) not write-protected
  4025                           ;	Data EEPROM Write Protection bit
  4026                           ;	WRTD = OFF, Data EEPROM not write-protected
  4027  30000B                     	org	3145739
  4028  30000B  E0                 	db	224
  4029                           
  4030                           ;Config register CONFIG7L @ 0x30000C
  4031                           ;	Table Read Protection bit
  4032                           ;	EBTR0 = OFF, Block 0 (000800-001FFFh) not protected from table reads executed in other
      +                           blocks
  4033                           ;	Table Read Protection bit
  4034                           ;	EBTR1 = OFF, Block 1 (002000-003FFFh) not protected from table reads executed in other
      +                           blocks
  4035                           ;	Table Read Protection bit
  4036                           ;	EBTR2 = OFF, Block 2 (004000-005FFFh) not protected from table reads executed in other
      +                           blocks
  4037                           ;	Table Read Protection bit
  4038                           ;	EBTR3 = OFF, Block 3 (006000-007FFFh) not protected from table reads executed in other
      +                           blocks
  4039  30000C                     	org	3145740
  4040  30000C  0F                 	db	15
  4041                           
  4042                           ;Config register CONFIG7H @ 0x30000D
  4043                           ;	Boot Block Table Read Protection bit
  4044                           ;	EBTRB = OFF, Boot block (000000-0007FFh) not protected from table reads executed in ot
      +                          her blocks
  4045  30000D                     	org	3145741
  4046  30000D  40                 	db	64
  4047                           tosu	equ	0xFFF
  4048                           tosh	equ	0xFFE
  4049                           tosl	equ	0xFFD
  4050                           stkptr	equ	0xFFC
  4051                           pclatu	equ	0xFFB
  4052                           pclath	equ	0xFFA
  4053                           pcl	equ	0xFF9
  4054                           tblptru	equ	0xFF8
  4055                           tblptrh	equ	0xFF7
  4056                           tblptrl	equ	0xFF6
  4057                           tablat	equ	0xFF5
  4058                           prodh	equ	0xFF4
  4059                           prodl	equ	0xFF3
  4060                           indf0	equ	0xFEF
  4061                           postinc0	equ	0xFEE
  4062                           postdec0	equ	0xFED
  4063                           preinc0	equ	0xFEC
  4064                           plusw0	equ	0xFEB
  4065                           fsr0h	equ	0xFEA
  4066                           fsr0l	equ	0xFE9
  4067                           wreg	equ	0xFE8
  4068                           indf1	equ	0xFE7
  4069                           postinc1	equ	0xFE6
  4070                           postdec1	equ	0xFE5
  4071                           preinc1	equ	0xFE4
  4072                           plusw1	equ	0xFE3
  4073                           fsr1h	equ	0xFE2
  4074                           fsr1l	equ	0xFE1
  4075                           bsr	equ	0xFE0
  4076                           indf2	equ	0xFDF
  4077                           postinc2	equ	0xFDE
  4078                           postdec2	equ	0xFDD
  4079                           preinc2	equ	0xFDC
  4080                           plusw2	equ	0xFDB
  4081                           fsr2h	equ	0xFDA
  4082                           fsr2l	equ	0xFD9
  4083                           status	equ	0xFD8

Data Sizes:
    Strings     119
    Constant    0
    Data        121
    BSS         49
    Persistent  0
    Stack       0

Auto Spaces:
    Space          Size  Autos    Used
    COMRAM          126     37     102
    BANK0           128     22     127
    BANK1           256      0       0
    BANK2           256      0       0
    BANK3           256      0       0
    BANK4           256      0       0
    BANK5           256      0       0

Pointer List with Targets:

    Absolute function$0	PTR unsigned long  size(2) Largest target is 4
		 -> global_timer_value(COMRAM[4]), 

    tickHook_func_prt$0	PTR unsigned long  size(2) Largest target is 4
		 -> global_timer_value(COMRAM[4]), 

    tickHook_Execute@global_timer_value	PTR unsigned long  size(2) Largest target is 4
		 -> global_timer_value(COMRAM[4]), 

    tickHook_func_prt	PTR FTN(PTR unsigned long ,)void  size(2) Largest target is 1
		 -> Absolute function(), 

    Serial_1_Config@serialConfig	PTR struct . size(2) Largest target is 7
		 -> serialConfig(BANK0[7]), 

    main_application@localHum	PTR unsigned char  size(2) Largest target is 3
		 -> vetorHumLocal(COMRAM[3]), NULL(NULL[0]), 

    main_application@localTemp	PTR unsigned char  size(2) Largest target is 4
		 -> vetorTempLocal(COMRAM[4]), NULL(NULL[0]), 

    Display_WriteString@string	PTR unsigned char  size(2) Largest target is 15
		 -> STR_15(CODE[10]), STR_14(CODE[7]), STR_13(CODE[8]), STR_11(CODE[12]), 
		 -> vetorHum(COMRAM[7]), vetorTemp(COMRAM[6]), main_application@auxText(COMRAM[15]), STR_3(CODE[8]), 
		 -> STR_2(CODE[8]), STR_1(CODE[5]), vector(COMRAM[3]), 

    sp__DHT11_GetHum	PTR unsigned char  size(2) Largest target is 2
		 -> humidity(COMRAM[2]), 

    sp__DHT11_GetTemp	PTR unsigned char  size(2) Largest target is 2
		 -> temperature(COMRAM[2]), 


Critical Paths under _main in COMRAM

    _Serial_1_Config->___lldiv
    _EEPROM_Erase->_EEPROM_DataWrite
    _Display_WriteString->_Display_WriteByte
    _DisplayLCD_Init->_Display_SendByte

Critical Paths under _TC0INT in COMRAM

    _TC0INT->i2_Display_WriteString
    i2_Display_WriteString->i2_Display_WriteByte

Critical Paths under _main in BANK0

    _main->_Serial_1_Config

Critical Paths under _TC0INT in BANK0

    None.

Critical Paths under _main in BANK1

    None.

Critical Paths under _TC0INT in BANK1

    None.

Critical Paths under _main in BANK2

    None.

Critical Paths under _TC0INT in BANK2

    None.

Critical Paths under _main in BANK3

    None.

Critical Paths under _TC0INT in BANK3

    None.

Critical Paths under _main in BANK4

    None.

Critical Paths under _TC0INT in BANK4

    None.

Critical Paths under _main in BANK5

    None.

Critical Paths under _TC0INT in BANK5

    None.

Call Graph Tables:

 ---------------------------------------------------------------------------------
 (Depth) Function   	        Calls       Base Space   Used Autos Params    Refs
 ---------------------------------------------------------------------------------
 (0) _main                                                14    14      0   14777
                                             13 BANK0      9     9      0
               _DHT11_Check_Response
                        _DHT11_Start
                    _DisplayLCD_Init
                   _Display_SendByte
                  _Display_WriteByte
                _Display_WriteString
                       _EEPROM_Erase
                    _Serial_1_Config
                            ___awdiv
                            ___awmod
                            ___lwdiv
                            ___lwmod
                          _read_data
 ---------------------------------------------------------------------------------
 (1) _read_data                                            4     4      0     167
                                             24 COMRAM     4     4      0
 ---------------------------------------------------------------------------------
 (1) ___lwmod                                              5     1      4     412
                                             24 COMRAM     5     1      4
 ---------------------------------------------------------------------------------
 (1) ___lwdiv                                              7     3      4     421
                                             24 COMRAM     7     3      4
 ---------------------------------------------------------------------------------
 (1) ___awmod                                              6     2      4    2233
                                             24 COMRAM     6     2      4
 ---------------------------------------------------------------------------------
 (1) ___awdiv                                              8     4      4    2245
                                             24 COMRAM     8     4      4
 ---------------------------------------------------------------------------------
 (1) _Serial_1_Config                                     13    11      2    1875
                                              0 BANK0     13    11      2
                            ___lldiv
 ---------------------------------------------------------------------------------
 (2) ___lldiv                                             13     5      8    1141
                                             24 COMRAM    13     5      8
 ---------------------------------------------------------------------------------
 (1) _EEPROM_Erase                                         1     1      0     614
                                             26 COMRAM     1     1      0
                   _EEPROM_DataWrite
 ---------------------------------------------------------------------------------
 (2) _EEPROM_DataWrite                                     3     2      1     515
                                             24 COMRAM     2     1      1
 ---------------------------------------------------------------------------------
 (1) _Display_WriteString                                 12     8      4    3131
                                             27 COMRAM     5     1      4
                                              0 BANK0      7     7      0
                  _Display_WriteByte
 ---------------------------------------------------------------------------------
 (2) _Display_WriteByte                                    3     3      0     133
                                             24 COMRAM     3     3      0
 ---------------------------------------------------------------------------------
 (1) _DisplayLCD_Init                                      1     1      0    1513
                                             28 COMRAM     1     1      0
                   _Display_SendByte
                         _sendNibble
 ---------------------------------------------------------------------------------
 (2) _sendNibble                                           3     3      0      34
                                             24 COMRAM     2     2      0
 ---------------------------------------------------------------------------------
 (1) _Display_SendByte                                     4     3      1    1479
                                             24 COMRAM     4     3      1
 ---------------------------------------------------------------------------------
 (1) _DHT11_Start                                          1     1      0       0
                                             24 COMRAM     1     1      0
 ---------------------------------------------------------------------------------
 (1) _DHT11_Check_Response                                 1     1      0       0
                                             24 COMRAM     1     1      0
 ---------------------------------------------------------------------------------
 Estimated maximum stack depth 2
 ---------------------------------------------------------------------------------
 (Depth) Function   	        Calls       Base Space   Used Autos Params    Refs
 ---------------------------------------------------------------------------------
 (3) _TC0INT                                               9     9      0     497
                                             15 COMRAM     9     9      0
                      _User_SetState
                   _tickHook_Execute
                 i2_Display_SendByte
              i2_Display_WriteString
 ---------------------------------------------------------------------------------
 (4) i2_Display_WriteString                               12     8      4     260
                                              3 COMRAM    12     8      4
                i2_Display_WriteByte
 ---------------------------------------------------------------------------------
 (5) i2_Display_WriteByte                                  3     3      0      91
                                              0 COMRAM     3     3      0
 ---------------------------------------------------------------------------------
 (4) i2_Display_SendByte                                   4     3      1     139
                                              0 COMRAM     4     3      1
 ---------------------------------------------------------------------------------
 (4) _tickHook_Execute                                     2     0      2      76
                                              0 COMRAM     2     0      2
 ---------------------------------------------------------------------------------
 (4) _User_SetState                                        1     1      0      22
                                              0 COMRAM     1     1      0
 ---------------------------------------------------------------------------------
 Estimated maximum stack depth 5
 ---------------------------------------------------------------------------------

 Call Graph Graphs:

 _main (ROOT)
   _DHT11_Check_Response
   _DHT11_Start
   _DisplayLCD_Init
     _Display_SendByte
     _sendNibble
   _Display_SendByte
   _Display_WriteByte
   _Display_WriteString
     _Display_WriteByte
   _EEPROM_Erase
     _EEPROM_DataWrite
   _Serial_1_Config
     ___lldiv
   ___awdiv
   ___awmod
   ___lwdiv
   ___lwmod
   _read_data

 _TC0INT (ROOT)
   _User_SetState
   _tickHook_Execute
   i2_Display_SendByte
   i2_Display_WriteString
     i2_Display_WriteByte

 Address spaces:
Name               Size   Autos  Total    Cost      Usage
BIGRAM             5FF      0       0      17        0.0%
EEDATA             100      0       0       0        0.0%
BITBANK5           100      0       0      16        0.0%
BANK5              100      0       0      14        0.0%
BITBANK4           100      0       0      12        0.0%
BANK4              100      0       0      13        0.0%
BITBANK3           100      0       0      10        0.0%
BANK3              100      0       0      11        0.0%
BITBANK2           100      0       0       8        0.0%
BANK2              100      0       0       9        0.0%
BITBANK1           100      0       0       6        0.0%
BANK1              100      0       0       7        0.0%
BITBANK0            80      0       0       4        0.0%
BANK0               80     16      7F       5       99.2%
BITCOMRAM           7E      0       0       0        0.0%
COMRAM              7E     25      66       1       81.0%
BITSFR               0      0       0     200        0.0%
SFR                  0      0       0     200        0.0%
STACK                0      0       0       2        0.0%
NULL                 0      0       0       0        0.0%
ABS                  0      0      E5      15        0.0%
DATA                 0      0      E5       3        0.0%
CODE                 0      0       0       0        0.0%


Microchip Technology PIC18 Macro Assembler V2.32 build 20210201212658 
Symbol Table                                                                                   Sun Aug 08 15:45:38 2021

               ??_Display_WriteByte 0019                                   _i 003E  
                                 _t 002A                        ___awdiv@sign 001E  
                               l100 06B0                                 l203 0F02  
                               l310 1336                                 l303 1302  
                               l305 1316                                 l316 1022  
                               l190 1498                                 l271 14A2  
                               l280 1046                                 l521 0BA4  
                               l178 1548                                 l282 105A  
                               l522 0BA8                                 l267 13F8  
                               l523 0BAE                                 l276 14CC  
                               l620 1524                                 l293 109E  
                               l286 106C                                 l519 0B48  
                               l288 107C                                 l297 12DC  
                               l299 12F0                                 l663 0FA6  
                               l656 0F96                                 l594 14D2  
                               l596 14E0                                 l860 0DAE  
                               l597 14FE                                 l873 0E5E  
             ??_Display_WriteString 00DB                        ___awmod@sign 001E  
                               wreg 000FE8                        main@Rh_byte1 00ED  
                      main@Rh_byte2 00EE              i2Display_SendByte@comm 0001  
            i2Display_SendByte@byte 0003           __end_of_Display_WriteByte 1338  
                     _vetorHumLocal 0064                                l1120 1200  
                              l1130 12CA                                l1127 1208  
                              l1137 12D2                                l3100 1082  
                              l3110 12D6                                l3104 1088  
                              l3120 12F6                                l3200 0F90  
                              l3106 108E                                l3202 0FA8  
                              l3210 0936                                l3140 149C  
                              l3132 131C                                l3124 12FC  
                              l3116 12EA                                l3108 12D6  
                              l3204 0FB4                                l3220 0B22  
                              l3212 0A40                                l3300 0E60  
                              l3206 0FE4                                l3230 0B44  
                              l3222 0B24                                l3214 0A8A  
                              l3310 0E80                                l3072 1026  
                              l3152 14B6                                l3144 149C  
                              l3136 1322                                l3128 1310  
                              l3208 0FE6                                l3160 14E8  
                              l3240 0B80                                l3232 0B5A  
                              l3224 0B26                                l3216 0AD4  
                              l3400 0E4E                                l3320 0EF0  
                              l3312 0E96                                l3090 1066  
                              l3082 1054                                l3074 1026  
                              l3154 14BC                                l3250 13B6  
                              l3138 1328                                l3170 14F4  
                              l3162 14EA                                l3242 0B9C  
                              l3234 0B5E                                l3226 0B2A  
                              l3218 0B1E                                l3330 0CFE  
                              l3402 0E56                                l3410 11B0  
                              l3322 0F00                                l3314 0EBA  
                              l3306 0E64                                l3092 1072  
                              l3076 1036                                l3148 14B0  
                              l3260 13E0                                l3252 13BC  
                              l3244 139C                                l3172 14F8  
                              l3164 14EC                                l3156 14D0  
                              l3180 0F04                                l3236 0B62  
                              l3228 0B3C                                l3340 0D24  
                              l3332 0D06                                l3420 11EA  
                              l3412 11B8                                l3316 0ED8  
                              l3308 0E7A                                l3500 078C  
                              l3086 1060                                l3078 1040  
                              l3262 13EA                                l3254 13C2  
                              l3246 13AC                                l3174 14FA  
                              l3166 14EE                                l3158 14E4  
                              l3270 1504                                l3190 0F4C  
                              l3182 0F14                                l3238 0B7E  
                              l3350 0D5C                                l3342 0D2C  
                              l3334 0D0A                                l3326 0CEC  
                              l3422 11F2                                l3414 11C0  
                              l3406 1196                                l3430 1282  
                              l3318 0EEE                                l3510 0804  
                              l3502 07B0                                l3096 1076  
                              l3256 13CC                                l3248 13B0  
                              l3176 14FC                                l3168 14F0  
                              l3272 150E                                l3264 1500  
                              l3192 0F56                                l3184 0F2A  
                              l3360 0D88                                l3352 0D62  
                              l3344 0D3E                                l3336 0D18  
                              l3328 0CF0                                l3424 11F4  
                              l3416 11CE                                l3408 119E  
                              l3440 12BE                                l3432 128A  
                              l3520 0866                                l3512 081E  
                              l3504 07CA                                l3290 1542  
                              l3258 13D6                                l3274 1510  
                              l3194 0F74                                l3186 0F32  
                              l3354 0D78                                l3346 0D46  
                              l3362 0D8E                                l3338 0D20  
                              l3370 0DB0                                l3426 11FA  
                              l3418 11D4                                l3442 12C4  
                              l3434 1292                                l3522 08F8  
                              l3514 0824                                l3506 07E4  
                              l3450 06A6                                l3292 1456  
                              l3284 152C                                l3276 1520  
                              l3196 0F84                                l3188 0F3E  
                              l3364 0D9E                                l3356 0D80  
                              l3348 0D4E                                l3380 0DDC  
                              l3372 0DB4                                l3436 12A0  
                              l3428 1270                                l3524 0912  
                              l3516 0840                                l3508 07EA  
                              l3460 06B6                                l3452 06AA  
                              l3444 067A                                l3294 1456  
                              l3286 1532                                l3278 1526  
                              l3198 0F86                                l3366 0DA6  
                              l3358 0D82                                l3390 0E14  
                              l3382 0DE4                                l3374 0DC2  
                              l3438 12B6                                l3526 0924  
                              l3518 085C                                l3470 06C8  
                              l3446 0688                                l3296 146C  
                              l3392 0E2A                                l3384 0DF6  
                              l3376 0DCA                                l3528 092A  
                              l3480 06F0                                l3472 06C8  
                              l3464 06BC                                l3448 06A2  
                              l3298 1482                                l3394 0E32  
                              l3386 0DFE                                l3378 0DCE  
                              l3490 071E                                l3482 06F8  
                              l3474 06CE                                l3396 0E38  
                              l3388 0E06                                l3492 0754  
                              l3484 0700                                l3476 06E8  
                              l3468 06C2                                l3398 0E3E  
                              l3494 075E                                l3486 0708  
                              l3478 06EC                                l3496 076E  
                              l3488 0710                                l3498 0782  
                              STR_1 0670                                STR_2 0659  
                              STR_3 0661                                STR_4 0618  
                              STR_5 0675                                STR_7 062A  
                              STR_8 0601                                u2000 12A0  
                              u2001 129C                                u2010 12B6  
                              u2011 12B2                                u2020 0754  
                              u2021 0750                                u2030 0924  
                              u2031 0920                                _LATB 000F8A  
                              u2207 0904                                _LATD 000F8C  
                              u2217 0E7C                                u1610 1036  
                              u2307 1084                                u1611 1032  
                              u2227 12F8                                u1620 14E0  
                              u2317 1094                                u2237 131E  
                              u1621 14DC                                u1630 0F2A  
                              u1710 0B3C                                u2327 1538  
                              u2247 132E                                u1631 0F26  
                              u1711 0B38                                u2167 0694  
                              u1640 0F4C                                u1720 0B5A  
                              u2257 13A2                                u1641 0F48  
                              u1721 0B56                                u1705 0A16  
                              u2177 06DA                                u1650 0F74  
                              u1730 0B9C                                u2267 13F0  
                              u1651 0F70                                u1731 0B98  
                              u2187 0766                                u1660 0FE0  
                              u1740 1520                                u1900 0DC2  
                              u1820 0EEE                                u1804 0EAA  
                              u2277 14B2                                u1741 151C  
                              u1901 0DBE                                u1821 0EEA  
                              u1805 0EA6                                u2197 0794  
                              u1750 146C                                u1670 1022  
                              u1910 0DDC                                u1830 0F00  
                              u1814 0ECE                                u1751 1468  
                              u2287 14C2                                u1671 101E  
                              u1911 0DD8                                u1831 0EFC  
                              u1815 0ECA                                u1760 1482  
                              u1840 0CFE                                u1920 0DF6  
                              u1761 147E                                u2297 1062  
                              u1841 0CFA                                u1921 0DF2  
                              u1770 1498                                u1850 0D18  
                              u1930 0E14                                u1771 1494  
                              u1667 0FD6                                u1851 0D14  
                              u1931 0E10                                u1860 0D3E  
                              u1940 0E2A                                u1780 0E7A  
                              u1685 0966                                u1861 0D3A  
                              u1941 0E26                                u1781 0E76  
                              u1870 0D5C                                u1950 0E4E  
                              u1790 0E96                                u1695 09BE  
                              u1871 0D58                                u1951 0E4A  
                              u1791 0E92                                u1880 0D78  
                              u1960 11B0                                u1881 0D74  
                              u1961 11AC                                u1890 0D9E  
                              u1970 11CE                                u1891 0D9A  
                              u1971 11CA                                u1980 11EA  
                              u1981 11E6                                u1990 1282  
                              u1991 127E                                i2l94 0CC8  
                              _TMR0 000FD6                                _TRMT 007D61  
                    ?_User_SetState 0001                                _main 067A  
                              fsr0h 000FEA                                indf0 000FEF  
                              fsr2h 000FDA                                fsr0l 000FE9  
                              indf2 000FDF                                fsr1l 000FE1  
                              fsr2l 000FD9                                btemp 0067  
                              prodh 000FF4                                prodl 000FF3  
                              start 000E                __size_of_DHT11_Start 0024  
                      ___param_bank 000000                __end_of_EEPROM_Erase 1526  
                       _string_temp 00B3                               ?_main 0001  
                   __end_of___awdiv 0DB0                               _EEADR 000FA9  
                             STR_11 063B                               STR_13 0651  
                             STR_14 0669                               STR_15 0647  
                   __end_of___awmod 0E60                     __end_of___lldiv 0FA8  
                   ___awdiv@divisor 001B                     __end_of___lwdiv 120A  
                   __end_of___lwmod 12D4                               i2l310 139A  
                             i2l303 1366                               i2l305 137A  
                             i2l147 156E                               i2l316 1194  
                             i2l280 10C2                               i2l282 10D6  
                             i2l293 111A                               i2l286 10E8  
                             i2l288 10F8                               i2l297 1340  
                             i2l299 1354                               i2l567 1570  
                   ___awdiv@counter 001D                               _RCREG 000FAE  
                             _SPBRG 000FAF                               _PORTB 000F81  
                             _PORTD 000F83                               _TRISB 000F93  
                             _TRISC 000F94                               _TRISD 000F95  
       __end_ofi2_Display_WriteByte 139C                               _TXREG 000FAD  
          __end_of_EEPROM_DataWrite 1500                               _count 003F  
                             main@s 00EA             ??i2_Display_WriteString 0008  
                    _vetorTempLocal 0056         i2Display_WriteString@length 0006  
                             tablat 000FF5                               ttemp5 0068  
                             ttemp6 006B                               ttemp7 006F  
                             status 000FD8                               wtemp8 0068  
       i2Display_WriteString@string 0004            main_application@localHum 0030  
                   __initialization 120A                        __end_of_main 0936  
                   _Serial_1_Config 0936                     _DisplayLCD_Init 139C  
                            ??_main 00E8         Serial_1_Config@serialConfig 00DB  
                     __activetblptr 000002          Serial_1_Config@error_8HIGH 00E6  
                    main@Temp_byte1 00EF                      main@Temp_byte2 00F0  
        __size_of_Display_WriteByte 0064                              _ADRESH 000FC4  
                            _ADRESL 000FC3                     ??_User_SetState 0001  
                            _EEDATA 000FA8                              _EECON2 000FA7  
                  ___awdiv@dividend 0019                              _TC0INT 0008  
          __end_of_tickHook_Execute 1572                              i2l2400 133A  
                            i2l2410 135A                              i2l2430 1570  
                            i2l2422 1380                              i2l2414 1360  
                            i2l2406 134E                              i2l2440 156A  
                            i2l2426 1386                              i2l2418 1374  
                            i2l2428 138C                              i2l2710 10BC  
                            i2l2704 10A2                              i2l2722 10E2  
                            i2l2714 10D0                              i2l2706 10A2  
                            i2l2732 10FE                              i2l2724 10EE  
                            i2l2708 10B2                              i2l2740 111C  
                            i2l2718 10DC                              i2l2398 133A  
                            i2l2742 1128                              i2l2736 1104  
                            i2l2728 10F2                              i2l2744 1158  
                            i2l2760 0BF4                              i2l2738 110A  
                            i2l2746 115A                              i2l2770 0C1E  
                            i2l2762 0BF6                              i2l2754 0BD2  
                            i2l2780 0C60                              i2l2772 0C30  
                            i2l2764 0C04                              i2l2756 0BE0  
                            i2l2790 0CA4                              i2l2782 0C6E  
                            i2l2774 0C40                              i2l2766 0C08  
                            i2l2758 0BEC                              i2l2792 0CB6  
                            i2l2784 0C82                              i2l2776 0C46  
                            i2l2768 0C18                              i2l2794 0CBC  
                            i2l2786 0C94                              i2l2778 0C56  
                            i2l2796 0CC2                              i2l2788 0C9A  
                            i2l2798 0CC6        __end_of_DHT11_Check_Response 149A  
       __size_ofi2_Display_SendByte 007C      main_application@localUserState 0036  
                         ??___awdiv 001D                           ??___awmod 001D  
                         ??___lldiv 0021                           ??___lwdiv 001D  
                         ??___lwmod 001D        i2Display_WriteString@address 0007  
                            clear_0 1250                              clear_1 125C  
                  ___awdiv@quotient 001F             Serial_1_Config@brg8HIGH 00E4  
                   ___awmod@divisor 001B                              isa$std 000001  
                            _vector 0042                     ___awmod@counter 001D  
                      __pdataCOMRAM 0049                        __mediumconst 0000  
                            tblptrh 000FF7                              tblptrl 000FF6  
                            tblptru 000FF8                          __accesstop 0080  
           __end_of__initialization 1262               __size_of_EEPROM_Erase 0026  
                     ___rparam_used 000001             __end_of_Serial_1_Config 0BB0  
         __size_of_Display_SendByte 007C                      __pcstackCOMRAM 0001  
           __end_of_DisplayLCD_Init 13FA                        __pidataBANK0 13FA  
        Display_WriteString@address 001F                        _EEPROM_Erase 1500  
                        __pbssBANK0 00F1                             ?_TC0INT 0001  
                __size_of_read_data 00A4         __end_of_Display_WriteString 1024  
              _DHT11_Check_Response 1456                          _count$F469 0039  
             main_application@F3181 008F               main_application@F3179 0080  
                 ?_EEPROM_DataWrite 0019                     __size_of_TC0INT 0CE4  
                ??_EEPROM_DataWrite 001A      __size_ofi2_Display_WriteString 007A  
     __end_ofi2_Display_WriteString 1196                       ??_DHT11_Start 0019  
                           __Hparam 0000                    ?_Serial_1_Config 00DB  
                           __Lparam 0000  main_application@localVoltageStatus 0035  
                  ?_DisplayLCD_Init 0001                             ___awdiv 0CEC  
                           ___awmod 0DB0                             ___lldiv 0F04  
                           ___lwdiv 1196                             ___lwmod 1270  
                      __psmallconst 0600                             _address 0040  
                           __pcinit 120A                             __ramtop 0600  
             ?_DHT11_Check_Response 0001                             __ptext0 067A  
                           __ptext1 0E60                             __ptext2 1270  
                           __ptext3 1196                             __ptext4 0DB0  
                           __ptext5 0CEC                             __ptext6 0936  
                           __ptext7 0F04                             __ptext8 1500  
                           __ptext9 14CE                           _T0CONbits 000FD5  
          Serial_1_Config@brg16HIGH 00E5                             _currLog 003A  
                 __end_of_read_data 0F04                    ___awmod@dividend 0019  
              EEPROM_DataWrite@addr 0019                EEPROM_DataWrite@data 001A  
                           _segundo 00F1                Display_SendByte@comm 0019  
              Display_SendByte@byte 001B                             main@sum 00EB  
                    __pintcode_body 0BB0                          _sendNibble 149A  
              end_of_initialization 1262        __size_ofi2_Display_WriteByte 0064  
                 ?_tickHook_Execute 0001                       __Lmediumconst 0000  
                           int_func 0BB0                  ??_tickHook_Execute 0003  
                   ___lldiv@divisor 001D                     ___lldiv@counter 0025  
                  _Display_SendByte 1024                           _RCSTAbits 000FAB  
               __end_of_DHT11_Start 154A                             postdec1 000FE5  
  main_application@localDHT11Result 0037                             postinc0 000FEE  
                           postinc2 000FDE             Display_SendByte@auxByte 001C  
             Display_WriteByte@byte 001A                           _TRISAbits 000F92  
          Serial_1_Config@error_min 00E7               __end_of_User_SetState 1570  
                    __end_of_TC0INT 0CEC          __end_ofi2_Display_SendByte 111C  
                         _TXSTAbits 000FAC                          _string_hum 009C  
                     _TimeIsElapsed 0041              ??_DHT11_Check_Response 0019  
                       _BAUDCONbits 000FB8                       __pidataCOMRAM 154A  
                      _firstReceive 003C       main_application@voltageStatus 0038  
           main_application@auxTemp 0061                 start_initialization 120A  
                       ?_sendNibble 0001                            ??_TC0INT 0010  
         Serial_1_Config@error_8LOW 00E1                         _DHT11_Start 1526  
                      _byteReceived 003D              Serial_1_Config@brg8LOW 00E3  
                       __pdataBANK0 0080                          read_data@i 001B  
                        read_data@j 001C                           _adcConfig 00CE  
                       __pbssCOMRAM 0026                       __pcstackBANK0 00DB  
         Display_WriteString@length 001E      i2Display_WriteString@auxLength 000F  
         Display_WriteString@string 001C                    ___lwdiv@dividend 0019  
                User_SetState@state 0001                           __pintcode 0008  
         __size_of_EEPROM_DataWrite 0032                            ?___awdiv 0019  
                          ?___awmod 0019                            ?___lldiv 0019  
                          ?___lwdiv 0019                            ?___lwmod 0019  
               i2_Display_WriteByte 1338                 __size_of_sendNibble 0034  
           i2Display_WriteByte@byte 0002                         __smallconst 0600  
              main_application@addr 0034          i2Display_WriteByte@auxByte 0003  
      __size_of_Display_WriteString 007C            __end_of_Display_SendByte 10A0  
                  ___lwdiv@quotient 001E                           _read_data 0E60  
              ?i2_Display_WriteByte 0001                            _PIE1bits 000F9D  
             i2_Display_WriteString 111C  tickHook_Execute@global_timer_value 0001  
                          i2u140_40 0C30                            i2u140_41 0C2C  
                          i2u133_40 10B2                            i2u141_40 0C94  
                          i2u133_41 10AE                            i2u141_41 0C90  
                          i2u134_40 1154                            i2u142_40 0CB6  
                          i2u142_41 0CB2                            i2u134_47 114A  
                          i2u135_40 1194                            i2u135_41 1190  
                          i2u137_40 0BE0                            i2u137_41 0BDC  
                          i2u233_47 0C66                            i2u138_40 0C04  
                          i2u138_41 0C00                            i2u234_47 135C  
                          i2u139_40 0C18                            i2u139_41 0C14  
                          i2u235_47 1382                            i2u236_47 1392  
                          i2u237_47 10DE                            i2u238_47 1100  
                          i2u239_47 1110                            _PIR1bits 000F9E  
                          _RCONbits 000FD0           __size_of_tickHook_Execute 0002  
          __size_of_Serial_1_Config 027A                 _BLUETOOTH_BAUD_COMM 00BE  
                        _ADCON0bits 000FC2                          _ADCON1bits 000FC1  
                        _ADCON2bits 000FC0                           _vetorTemp 0050  
          __size_of_DisplayLCD_Init 005E                          ?_read_data 0001  
                       _INTCON2bits 000FF1                           copy_data0 121E  
             ??i2_Display_WriteByte 0001                           copy_data1 123E  
            main_application@auxHum 005E                          _EECON1bits 000FA6  
               _BLUETOOTH_NAME_COMM 00C6                            __Hrparam 0000  
                          __Lrparam 0000                    sendNibble@nibble 001A  
                  __size_of___awdiv 00C4                    __size_of___awmod 00B0  
                  __size_of___lldiv 00A4                    __size_of___lwdiv 0074  
                i2_Display_SendByte 10A0                    __size_of___lwmod 0064  
               ?i2_Display_SendByte 0001                     ___lwdiv@divisor 001B  
                   ___lwdiv@counter 001D                            __ptext10 0FA8  
                          __ptext11 12D4                            __ptext20 10A0  
                          __ptext12 139C                            __ptext21 1570  
                          __ptext13 149A                            __ptext22 1568  
                          __ptext14 1024                            __ptext15 1526  
                          __ptext16 1456                            __ptext18 111C  
                          __ptext19 1338                       ?_EEPROM_Erase 0001  
                      ??_sendNibble 0019                       __size_of_main 02BC  
            ?i2_Display_WriteString 0004                        ?_DHT11_Start 0001  
         main_application@localTemp 0032                        _serialConfig 00D4  
         i2Display_SendByte@auxByte 0004                            _humidity 0045  
              ??i2_Display_SendByte 0002                            isa$xinst 000000  
                  _EEPROM_DataWrite 14CE                            int$flags 0067  
                          _vetorHum 0049                  __end_of_sendNibble 14CE  
            __size_of_User_SetState 0008       __size_of_DHT11_Check_Response 0044  
                        _INTCONbits 000FF2                      ??_EEPROM_Erase 001B  
                 ??_Serial_1_Config 00DD                         ??_read_data 0019  
                 ??_DisplayLCD_Init 001D                            intlevel2 0000  
                _BLUETOOTH_PIN_COMM 00A8         Serial_1_Config@error_16HIGH 00E2  
                  ___lwmod@dividend 0019              Timer0_WaitMS@timeStart 0026  
                  ___lldiv@dividend 0019                 _Display_WriteString 0FA8  
                     _UserConnected 003B                  _global_timer_value 005A  
                  _tickHook_Execute 1570        Display_WriteString@auxLength 0020  
                  EEPROM_Erase@addr 001B                         _temperature 0047  
                       _timerConfig 00FA                    ___lldiv@quotient 0021  
              ?_Display_WriteString 001C                   _tickHook_func_prt 002E  
                   ___lwmod@divisor 001B            Display_WriteByte@auxByte 001B  
                   ___lwmod@counter 001D                   ?_Display_SendByte 0019  
                ??_Display_SendByte 001A                   _Display_WriteByte 12D4  
                     _User_SetState 1568                  ?_Display_WriteByte 0001  
